; ModuleID = '/home/sdsoc/yc_ws/sdx_ws/proj/YOLO-master/cpp/HGUFPGAConv/HGUConv_0/src/kernel.cpp'
source_filename = "/home/sdsoc/yc_ws/sdx_ws/proj/YOLO-master/cpp/HGUFPGAConv/HGUConv_0/src/kernel.cpp"
target datalayout = "e-m:e-p:32:32-i64:64-v128:64:128-a:0:32-n32-S64"
target triple = "armv7--linux-gnueabihf"

%"class.std::ios_base::Init" = type { i8 }
%"class.std::basic_ostream" = type { i32 (...)**, %"class.std::basic_ios" }
%"class.std::basic_ios" = type { %"class.std::ios_base", %"class.std::basic_ostream"*, i8, i8, %"class.std::basic_streambuf"*, %"class.std::ctype"*, %"class.std::num_put"*, %"class.std::num_get"* }
%"class.std::ios_base" = type { i32 (...)**, i32, i32, i32, i32, i32, %"struct.std::ios_base::_Callback_list"*, %"struct.std::ios_base::_Words", [8 x %"struct.std::ios_base::_Words"], i32, %"struct.std::ios_base::_Words"*, %"class.std::locale" }
%"struct.std::ios_base::_Callback_list" = type { %"struct.std::ios_base::_Callback_list"*, void (i32, %"class.std::ios_base"*, i32)*, i32, i32 }
%"struct.std::ios_base::_Words" = type { i8*, i32 }
%"class.std::locale" = type { %"class.std::locale::_Impl"* }
%"class.std::locale::_Impl" = type { i32, %"class.std::locale::facet"**, i32, %"class.std::locale::facet"**, i8** }
%"class.std::locale::facet" = type { i32 (...)**, i32 }
%"class.std::basic_streambuf" = type { i32 (...)**, i8*, i8*, i8*, i8*, i8*, i8*, %"class.std::locale" }
%"class.std::ctype" = type <{ %"class.std::locale::facet", i32*, i8, [3 x i8], i32*, i32*, i16*, i8, [256 x i8], [256 x i8], i8, [2 x i8] }>
%"class.std::num_put" = type { %"class.std::locale::facet" }
%"class.std::num_get" = type { %"class.std::locale::facet" }
%"class.hls::stream" = type { i32 (...)**, %"class.std::__cxx11::basic_string", %"class.std::deque" }
%"class.std::__cxx11::basic_string" = type { %"struct.std::__cxx11::basic_string<char, std::char_traits<char>, std::allocator<char> >::_Alloc_hider", i32, %union.anon }
%"struct.std::__cxx11::basic_string<char, std::char_traits<char>, std::allocator<char> >::_Alloc_hider" = type { i8* }
%union.anon = type { i32, [12 x i8] }
%"class.std::deque" = type { %"class.std::_Deque_base" }
%"class.std::_Deque_base" = type { %"struct.std::_Deque_base<float, std::allocator<float> >::_Deque_impl" }
%"struct.std::_Deque_base<float, std::allocator<float> >::_Deque_impl" = type { float**, i32, %"struct.std::_Deque_iterator", %"struct.std::_Deque_iterator" }
%"struct.std::_Deque_iterator" = type { float*, float*, float*, float** }
%"class.std::__cxx11::basic_stringstream" = type { %"class.std::basic_iostream.base", %"class.std::__cxx11::basic_stringbuf", %"class.std::basic_ios" }
%"class.std::basic_iostream.base" = type { %"class.std::basic_istream.base", %"class.std::basic_ostream.base" }
%"class.std::basic_istream.base" = type { i32 (...)**, i32 }
%"class.std::basic_ostream.base" = type { i32 (...)** }
%"class.std::__cxx11::basic_stringbuf" = type { %"class.std::basic_streambuf", i32, %"class.std::__cxx11::basic_string" }
%"class.std::type_info" = type { i32 (...)**, i8* }
%"class.std::allocator.0" = type { i8 }
%"class.__gnu_cxx::new_allocator.1" = type { i8 }
%"class.std::allocator.3" = type { i8 }
%"class.__gnu_cxx::new_allocator.4" = type { i8 }

$_ZN3hls6streamIfElsERKf = comdat any

$_ZN3hls6streamIfE4readEv = comdat any

$_ZN3hls6streamIfEC2Ev = comdat any

$_ZN3hls6streamIfED2Ev = comdat any

$_ZN3hls6streamIfE5writeERKf = comdat any

$_ZNSt5dequeIfSaIfEE9push_backERKf = comdat any

$_ZNSt16allocator_traitsISaIfEE9constructIfJRKfEEEvRS0_PT_DpOT0_ = comdat any

$_ZNSt5dequeIfSaIfEE16_M_push_back_auxIJRKfEEEvDpOT_ = comdat any

$_ZN9__gnu_cxx13new_allocatorIfE9constructIfJRKfEEEvPT_DpOT0_ = comdat any

$_ZSt7forwardIRKfEOT_RNSt16remove_referenceIS2_E4typeE = comdat any

$_ZNSt5dequeIfSaIfEE22_M_reserve_map_at_backEj = comdat any

$_ZNSt11_Deque_baseIfSaIfEE16_M_allocate_nodeEv = comdat any

$_ZNSt15_Deque_iteratorIfRfPfE11_M_set_nodeEPS1_ = comdat any

$_ZNSt11_Deque_baseIfSaIfEE18_M_deallocate_nodeEPf = comdat any

$__clang_call_terminate = comdat any

$_ZNSt5dequeIfSaIfEE17_M_reallocate_mapEjb = comdat any

$_ZSt4copyIPPfS1_ET0_T_S3_S2_ = comdat any

$_ZSt13copy_backwardIPPfS1_ET0_T_S3_S2_ = comdat any

$_ZSt3maxIjERKT_S2_S2_ = comdat any

$_ZNSt11_Deque_baseIfSaIfEE15_M_allocate_mapEj = comdat any

$_ZNSt11_Deque_baseIfSaIfEE17_M_deallocate_mapEPPfj = comdat any

$_ZSt14__copy_move_a2ILb0EPPfS1_ET1_T0_S3_S2_ = comdat any

$_ZSt12__miter_baseIPPfET_S2_ = comdat any

$_ZSt13__copy_move_aILb0EPPfS1_ET1_T0_S3_S2_ = comdat any

$_ZSt12__niter_baseIPPfET_S2_ = comdat any

$_ZNSt11__copy_moveILb0ELb1ESt26random_access_iterator_tagE8__copy_mIPfEEPT_PKS4_S7_S5_ = comdat any

$_ZSt23__copy_move_backward_a2ILb0EPPfS1_ET1_T0_S3_S2_ = comdat any

$_ZSt22__copy_move_backward_aILb0EPPfS1_ET1_T0_S3_S2_ = comdat any

$_ZNSt20__copy_move_backwardILb0ELb1ESt26random_access_iterator_tagE13__copy_move_bIPfEEPT_PKS4_S7_S5_ = comdat any

$_ZNKSt11_Deque_baseIfSaIfEE20_M_get_map_allocatorEv = comdat any

$_ZNSt16allocator_traitsISaIPfEE8allocateERS1_j = comdat any

$_ZNSaIPfED2Ev = comdat any

$_ZNKSt11_Deque_baseIfSaIfEE19_M_get_Tp_allocatorEv = comdat any

$_ZNSaIPfEC2IfEERKSaIT_E = comdat any

$_ZN9__gnu_cxx13new_allocatorIPfEC2Ev = comdat any

$_ZN9__gnu_cxx13new_allocatorIPfE8allocateEjPKv = comdat any

$_ZNK9__gnu_cxx13new_allocatorIPfE8max_sizeEv = comdat any

$_ZN9__gnu_cxx13new_allocatorIPfED2Ev = comdat any

$_ZNSt16allocator_traitsISaIPfEE10deallocateERS1_PS0_j = comdat any

$_ZN9__gnu_cxx13new_allocatorIPfE10deallocateEPS1_j = comdat any

$_ZNSt16allocator_traitsISaIfEE8allocateERS0_j = comdat any

$_ZSt16__deque_buf_sizej = comdat any

$_ZN9__gnu_cxx13new_allocatorIfE8allocateEjPKv = comdat any

$_ZNK9__gnu_cxx13new_allocatorIfE8max_sizeEv = comdat any

$_ZNSt15_Deque_iteratorIfRfPfE14_S_buffer_sizeEv = comdat any

$_ZNSt16allocator_traitsISaIfEE10deallocateERS0_Pfj = comdat any

$_ZN9__gnu_cxx13new_allocatorIfE10deallocateEPfj = comdat any

$_ZNKSt5dequeIfSaIfEE5emptyEv = comdat any

$_ZNSt5dequeIfSaIfEE5frontEv = comdat any

$_ZNSt5dequeIfSaIfEE9pop_frontEv = comdat any

$_ZSteqIfRfPfEbRKSt15_Deque_iteratorIT_T0_T1_ES8_ = comdat any

$_ZNSt5dequeIfSaIfEE5beginEv = comdat any

$_ZNKSt15_Deque_iteratorIfRfPfEdeEv = comdat any

$_ZNSt15_Deque_iteratorIfRfPfEC2ERKS2_ = comdat any

$_ZNSt16allocator_traitsISaIfEE7destroyIfEEvRS0_PT_ = comdat any

$_ZNSt5dequeIfSaIfEE16_M_pop_front_auxEv = comdat any

$_ZN9__gnu_cxx13new_allocatorIfE7destroyIfEEvPT_ = comdat any

$_ZNSt11_Deque_baseIfSaIfEE19_M_get_Tp_allocatorEv = comdat any

$_ZNSt5dequeIfSaIfEEC2Ev = comdat any

$_ZStorSt13_Ios_OpenmodeS_ = comdat any

$_ZNKSt9type_info4nameEv = comdat any

$_ZStplIcSt11char_traitsIcESaIcEENSt7__cxx1112basic_stringIT_T0_T1_EEPKS5_OS8_ = comdat any

$_ZNSt5dequeIfSaIfEED2Ev = comdat any

$_ZN3hls6streamIfED0Ev = comdat any

$_ZNSt11_Deque_baseIfSaIfEEC2Ev = comdat any

$_ZNSt11_Deque_baseIfSaIfEE11_Deque_implC2Ev = comdat any

$_ZNSt11_Deque_baseIfSaIfEE17_M_initialize_mapEj = comdat any

$_ZNSt11_Deque_baseIfSaIfEE11_Deque_implD2Ev = comdat any

$_ZNSaIfEC2Ev = comdat any

$_ZNSt15_Deque_iteratorIfRfPfEC2Ev = comdat any

$_ZN9__gnu_cxx13new_allocatorIfEC2Ev = comdat any

$_ZNSt11_Deque_baseIfSaIfEE15_M_create_nodesEPPfS3_ = comdat any

$_ZNSt11_Deque_baseIfSaIfEE16_M_destroy_nodesEPPfS3_ = comdat any

$_ZNSaIfED2Ev = comdat any

$_ZN9__gnu_cxx13new_allocatorIfED2Ev = comdat any

$_ZSt4moveIRNSt7__cxx1112basic_stringIcSt11char_traitsIcESaIcEEEEONSt16remove_referenceIT_E4typeEOS8_ = comdat any

$_ZNSt5dequeIfSaIfEE15_M_destroy_dataESt15_Deque_iteratorIfRfPfES5_RKS0_ = comdat any

$_ZNSt5dequeIfSaIfEE3endEv = comdat any

$_ZNSt11_Deque_baseIfSaIfEED2Ev = comdat any

$_ZTVN3hls6streamIfEE = comdat any

$_ZZN3hls6streamIfEC1EvE8_counter = comdat any

$_ZTSN3hls6streamIfEE = comdat any

$_ZTIN3hls6streamIfEE = comdat any

@_ZStL8__ioinit = internal global %"class.std::ios_base::Init" zeroinitializer, align 1
@__dso_handle = external global i8
@_ZSt4cout = external global %"class.std::basic_ostream", align 4
@.str = private unnamed_addr constant [23 x i8] c"WARNING: Hls::stream '\00", align 1
@.str.1 = private unnamed_addr constant [23 x i8] c"' is read while empty,\00", align 1
@.str.2 = private unnamed_addr constant [45 x i8] c" which may result in RTL simulation hanging.\00", align 1
@_ZTVN3hls6streamIfEE = linkonce_odr unnamed_addr constant [4 x i8*] [i8* null, i8* bitcast ({ i8*, i8* }* @_ZTIN3hls6streamIfEE to i8*), i8* bitcast (%"class.hls::stream"* (%"class.hls::stream"*)* @_ZN3hls6streamIfED2Ev to i8*), i8* bitcast (void (%"class.hls::stream"*)* @_ZN3hls6streamIfED0Ev to i8*)], comdat, align 4
@_ZZN3hls6streamIfEC1EvE8_counter = linkonce_odr global i32 1, comdat, align 4
@.str.3 = private unnamed_addr constant [11 x i8] c"hls_stream\00", align 1
@.str.4 = private unnamed_addr constant [2 x i8] c".\00", align 1
@_ZTVN10__cxxabiv117__class_type_infoE = external global i8*
@_ZTSN3hls6streamIfEE = linkonce_odr constant [17 x i8] c"N3hls6streamIfEE\00", comdat
@_ZTIN3hls6streamIfEE = linkonce_odr constant { i8*, i8* } { i8* bitcast (i8** getelementptr inbounds (i8*, i8** @_ZTVN10__cxxabiv117__class_type_infoE, i32 2) to i8*), i8* getelementptr inbounds ([17 x i8], [17 x i8]* @_ZTSN3hls6streamIfEE, i32 0, i32 0) }, comdat
@.str.5 = private unnamed_addr constant [26 x i8] c"' contains leftover data,\00", align 1
@llvm.global_ctors = appending global [1 x { i32, void ()*, i8* }] [{ i32, void ()*, i8* } { i32 65535, void ()* @_GLOBAL__sub_I_kernel.cpp, i8* null }]

define internal void @__cxx_global_var_init() #0 section ".text.startup" !dbg !1631 {
  %1 = call %"class.std::ios_base::Init"* @_ZNSt8ios_base4InitC1Ev(%"class.std::ios_base::Init"* @_ZStL8__ioinit), !dbg !1632
  %2 = call i32 @__cxa_atexit(void (i8*)* bitcast (%"class.std::ios_base::Init"* (%"class.std::ios_base::Init"*)* @_ZNSt8ios_base4InitD1Ev to void (i8*)*), i8* getelementptr inbounds (%"class.std::ios_base::Init", %"class.std::ios_base::Init"* @_ZStL8__ioinit, i32 0, i32 0), i8* @__dso_handle) #3, !dbg !1633
  ret void, !dbg !1632
}

declare !xidane.fname !1635 !xidane.function_declaration_type !1636 !xidane.function_declaration_filename !1637 %"class.std::ios_base::Init"* @_ZNSt8ios_base4InitC1Ev(%"class.std::ios_base::Init"* returned) unnamed_addr #1

; Function Attrs: nounwind
declare !xidane.fname !1638 !xidane.function_declaration_type !1636 !xidane.function_declaration_filename !1637 %"class.std::ios_base::Init"* @_ZNSt8ios_base4InitD1Ev(%"class.std::ios_base::Init"* returned) unnamed_addr #2

; Function Attrs: nounwind
declare i32 @__cxa_atexit(void (i8*)*, i8*, i8*) #3

; Function Attrs: nounwind
define void @_Z6read_APfPA144_f(float*, [144 x float]*) #4 !dbg !1639 !xidane.fname !1646 !xidane.function_declaration_type !1647 !xidane.function_declaration_filename !1648 {
  %3 = alloca float*, align 4
  %4 = alloca [144 x float]*, align 4
  %5 = alloca i32, align 4
  %6 = alloca i32, align 4
  %7 = alloca i32, align 4
  store float* %0, float** %3, align 4
  call void @llvm.dbg.declare(metadata float** %3, metadata !1649, metadata !1650), !dbg !1651
  store [144 x float]* %1, [144 x float]** %4, align 4
  call void @llvm.dbg.declare(metadata [144 x float]** %4, metadata !1652, metadata !1650), !dbg !1653
  call void @llvm.dbg.declare(metadata i32* %5, metadata !1654, metadata !1650), !dbg !1655
  call void @llvm.dbg.declare(metadata i32* %6, metadata !1656, metadata !1650), !dbg !1657
  call void @llvm.dbg.declare(metadata i32* %7, metadata !1658, metadata !1650), !dbg !1659
  store i32 0, i32* %5, align 4, !dbg !1660
  store i32 0, i32* %7, align 4, !dbg !1662
  br label %8, !dbg !1663

; <label>:8:                                      ; preds = %31, %2
  %9 = load i32, i32* %5, align 4, !dbg !1664
  %10 = icmp slt i32 %9, 32, !dbg !1667
  br i1 %10, label %11, label %36, !dbg !1668

; <label>:11:                                     ; preds = %8
  store i32 0, i32* %6, align 4, !dbg !1669
  br label %12, !dbg !1672

; <label>:12:                                     ; preds = %27, %11
  %13 = load i32, i32* %6, align 4, !dbg !1673
  %14 = icmp slt i32 %13, 144, !dbg !1676
  br i1 %14, label %15, label %30, !dbg !1677

; <label>:15:                                     ; preds = %12
  %16 = load i32, i32* %7, align 4, !dbg !1678
  %17 = load i32, i32* %6, align 4, !dbg !1680
  %18 = add nsw i32 %16, %17, !dbg !1681
  %19 = load float*, float** %3, align 4, !dbg !1682
  %20 = getelementptr inbounds float, float* %19, i32 %18, !dbg !1682
  %21 = load float, float* %20, align 4, !dbg !1682
  %22 = load i32, i32* %6, align 4, !dbg !1683
  %23 = load i32, i32* %5, align 4, !dbg !1684
  %24 = load [144 x float]*, [144 x float]** %4, align 4, !dbg !1685
  %25 = getelementptr inbounds [144 x float], [144 x float]* %24, i32 %23, !dbg !1685
  %26 = getelementptr inbounds [144 x float], [144 x float]* %25, i32 0, i32 %22, !dbg !1685
  store float %21, float* %26, align 4, !dbg !1686
  br label %27, !dbg !1687

; <label>:27:                                     ; preds = %15
  %28 = load i32, i32* %6, align 4, !dbg !1688
  %29 = add nsw i32 %28, 1, !dbg !1688
  store i32 %29, i32* %6, align 4, !dbg !1688
  br label %12, !dbg !1690, !llvm.loop !1691

; <label>:30:                                     ; preds = %12
  br label %31, !dbg !1693

; <label>:31:                                     ; preds = %30
  %32 = load i32, i32* %5, align 4, !dbg !1694
  %33 = add nsw i32 %32, 1, !dbg !1694
  store i32 %33, i32* %5, align 4, !dbg !1694
  %34 = load i32, i32* %7, align 4, !dbg !1696
  %35 = add nsw i32 %34, 144, !dbg !1696
  store i32 %35, i32* %7, align 4, !dbg !1696
  br label %8, !dbg !1697, !llvm.loop !1698

; <label>:36:                                     ; preds = %8
  ret void, !dbg !1700
}

; Function Attrs: nounwind readnone
declare void @llvm.dbg.declare(metadata, metadata, metadata) #5

; Function Attrs: nounwind
define void @_Z11out_initialPA169_f([169 x float]*) #4 !dbg !1701 !xidane.fname !1708 !xidane.function_declaration_type !1709 !xidane.function_declaration_filename !1648 {
  %2 = alloca [169 x float]*, align 4
  %3 = alloca i32, align 4
  %4 = alloca i32, align 4
  store [169 x float]* %0, [169 x float]** %2, align 4
  call void @llvm.dbg.declare(metadata [169 x float]** %2, metadata !1710, metadata !1650), !dbg !1711
  call void @llvm.dbg.declare(metadata i32* %3, metadata !1712, metadata !1650), !dbg !1713
  call void @llvm.dbg.declare(metadata i32* %4, metadata !1714, metadata !1650), !dbg !1715
  store i32 0, i32* %4, align 4, !dbg !1716
  br label %5, !dbg !1718

; <label>:5:                                      ; preds = %22, %1
  %6 = load i32, i32* %4, align 4, !dbg !1719
  %7 = icmp slt i32 %6, 169, !dbg !1722
  br i1 %7, label %8, label %25, !dbg !1723

; <label>:8:                                      ; preds = %5
  store i32 0, i32* %3, align 4, !dbg !1724
  br label %9, !dbg !1727

; <label>:9:                                      ; preds = %18, %8
  %10 = load i32, i32* %3, align 4, !dbg !1728
  %11 = icmp slt i32 %10, 32, !dbg !1731
  br i1 %11, label %12, label %21, !dbg !1732

; <label>:12:                                     ; preds = %9
  %13 = load i32, i32* %4, align 4, !dbg !1733
  %14 = load i32, i32* %3, align 4, !dbg !1735
  %15 = load [169 x float]*, [169 x float]** %2, align 4, !dbg !1736
  %16 = getelementptr inbounds [169 x float], [169 x float]* %15, i32 %14, !dbg !1736
  %17 = getelementptr inbounds [169 x float], [169 x float]* %16, i32 0, i32 %13, !dbg !1736
  store float 0.000000e+00, float* %17, align 4, !dbg !1737
  br label %18, !dbg !1738

; <label>:18:                                     ; preds = %12
  %19 = load i32, i32* %3, align 4, !dbg !1739
  %20 = add nsw i32 %19, 1, !dbg !1739
  store i32 %20, i32* %3, align 4, !dbg !1739
  br label %9, !dbg !1741, !llvm.loop !1742

; <label>:21:                                     ; preds = %9
  br label %22, !dbg !1744

; <label>:22:                                     ; preds = %21
  %23 = load i32, i32* %4, align 4, !dbg !1745
  %24 = add nsw i32 %23, 1, !dbg !1745
  store i32 %24, i32* %4, align 4, !dbg !1745
  br label %5, !dbg !1747, !llvm.loop !1748

; <label>:25:                                     ; preds = %5
  ret void, !dbg !1750
}

; Function Attrs: nounwind
define void @_Z9write_outPA169_fPf([169 x float]*, float*) #4 !dbg !1751 !xidane.fname !1754 !xidane.function_declaration_type !1755 !xidane.function_declaration_filename !1648 {
  %3 = alloca [169 x float]*, align 4
  %4 = alloca float*, align 4
  %5 = alloca i32, align 4
  %6 = alloca i32, align 4
  %7 = alloca i32, align 4
  store [169 x float]* %0, [169 x float]** %3, align 4
  call void @llvm.dbg.declare(metadata [169 x float]** %3, metadata !1756, metadata !1650), !dbg !1757
  store float* %1, float** %4, align 4
  call void @llvm.dbg.declare(metadata float** %4, metadata !1758, metadata !1650), !dbg !1759
  call void @llvm.dbg.declare(metadata i32* %5, metadata !1760, metadata !1650), !dbg !1761
  call void @llvm.dbg.declare(metadata i32* %6, metadata !1762, metadata !1650), !dbg !1763
  call void @llvm.dbg.declare(metadata i32* %7, metadata !1764, metadata !1650), !dbg !1765
  store i32 0, i32* %5, align 4, !dbg !1766
  store i32 0, i32* %6, align 4, !dbg !1768
  br label %8, !dbg !1769

; <label>:8:                                      ; preds = %31, %2
  %9 = load i32, i32* %5, align 4, !dbg !1770
  %10 = icmp slt i32 %9, 32, !dbg !1773
  br i1 %10, label %11, label %34, !dbg !1774

; <label>:11:                                     ; preds = %8
  store i32 0, i32* %7, align 4, !dbg !1775
  br label %12, !dbg !1778

; <label>:12:                                     ; preds = %25, %11
  %13 = load i32, i32* %7, align 4, !dbg !1779
  %14 = icmp slt i32 %13, 169, !dbg !1782
  br i1 %14, label %15, label %30, !dbg !1783

; <label>:15:                                     ; preds = %12
  %16 = load i32, i32* %7, align 4, !dbg !1784
  %17 = load i32, i32* %5, align 4, !dbg !1786
  %18 = load [169 x float]*, [169 x float]** %3, align 4, !dbg !1787
  %19 = getelementptr inbounds [169 x float], [169 x float]* %18, i32 %17, !dbg !1787
  %20 = getelementptr inbounds [169 x float], [169 x float]* %19, i32 0, i32 %16, !dbg !1787
  %21 = load float, float* %20, align 4, !dbg !1787
  %22 = load i32, i32* %6, align 4, !dbg !1788
  %23 = load float*, float** %4, align 4, !dbg !1789
  %24 = getelementptr inbounds float, float* %23, i32 %22, !dbg !1789
  store float %21, float* %24, align 4, !dbg !1790
  br label %25, !dbg !1791

; <label>:25:                                     ; preds = %15
  %26 = load i32, i32* %7, align 4, !dbg !1792
  %27 = add nsw i32 %26, 1, !dbg !1792
  store i32 %27, i32* %7, align 4, !dbg !1792
  %28 = load i32, i32* %6, align 4, !dbg !1794
  %29 = add nsw i32 %28, 1, !dbg !1794
  store i32 %29, i32* %6, align 4, !dbg !1794
  br label %12, !dbg !1795, !llvm.loop !1796

; <label>:30:                                     ; preds = %12
  br label %31, !dbg !1798

; <label>:31:                                     ; preds = %30
  %32 = load i32, i32* %5, align 4, !dbg !1799
  %33 = add nsw i32 %32, 1, !dbg !1799
  store i32 %33, i32* %5, align 4, !dbg !1799
  br label %8, !dbg !1801, !llvm.loop !1802

; <label>:34:                                     ; preds = %8
  ret void, !dbg !1804
}

; Function Attrs: nounwind
define void @_Z11cal_initialPfPA144_fPA169_f(float*, [144 x float]*, [169 x float]*) #4 !dbg !1805 !xidane.fname !1808 !xidane.function_declaration_type !1809 !xidane.function_declaration_filename !1648 {
  %4 = alloca float*, align 4
  %5 = alloca [144 x float]*, align 4
  %6 = alloca [169 x float]*, align 4
  store float* %0, float** %4, align 4
  call void @llvm.dbg.declare(metadata float** %4, metadata !1810, metadata !1650), !dbg !1811
  store [144 x float]* %1, [144 x float]** %5, align 4
  call void @llvm.dbg.declare(metadata [144 x float]** %5, metadata !1812, metadata !1650), !dbg !1813
  store [169 x float]* %2, [169 x float]** %6, align 4
  call void @llvm.dbg.declare(metadata [169 x float]** %6, metadata !1814, metadata !1650), !dbg !1815
  %7 = load [169 x float]*, [169 x float]** %6, align 4, !dbg !1816
  call void @_Z11out_initialPA169_f([169 x float]* %7), !dbg !1817
  %8 = load float*, float** %4, align 4, !dbg !1818
  %9 = load [144 x float]*, [144 x float]** %5, align 4, !dbg !1819
  call void @_Z6read_APfPA144_f(float* %8, [144 x float]* %9), !dbg !1820
  ret void, !dbg !1821
}

define void @_Z6read_BPfRN3hls6streamIfEE(float*, %"class.hls::stream"* dereferenceable(68)) #0 !dbg !1822 !xidane.fname !1825 !xidane.function_declaration_type !1826 !xidane.function_declaration_filename !1648 {
  %3 = alloca float*, align 4
  %4 = alloca %"class.hls::stream"*, align 4
  %5 = alloca i32, align 4
  store float* %0, float** %3, align 4
  call void @llvm.dbg.declare(metadata float** %3, metadata !1827, metadata !1650), !dbg !1828
  store %"class.hls::stream"* %1, %"class.hls::stream"** %4, align 4
  call void @llvm.dbg.declare(metadata %"class.hls::stream"** %4, metadata !1829, metadata !1650), !dbg !1830
  call void @llvm.dbg.declare(metadata i32* %5, metadata !1831, metadata !1650), !dbg !1832
  store i32 0, i32* %5, align 4, !dbg !1833
  br label %6, !dbg !1835

; <label>:6:                                      ; preds = %14, %2
  %7 = load i32, i32* %5, align 4, !dbg !1836
  %8 = icmp slt i32 %7, 24336, !dbg !1839
  br i1 %8, label %9, label %17, !dbg !1840

; <label>:9:                                      ; preds = %6
  %10 = load %"class.hls::stream"*, %"class.hls::stream"** %4, align 4, !dbg !1841
  %11 = load i32, i32* %5, align 4, !dbg !1843
  %12 = load float*, float** %3, align 4, !dbg !1844
  %13 = getelementptr inbounds float, float* %12, i32 %11, !dbg !1844
  call void @_ZN3hls6streamIfElsERKf(%"class.hls::stream"* %10, float* dereferenceable(4) %13), !dbg !1845
  br label %14, !dbg !1846

; <label>:14:                                     ; preds = %9
  %15 = load i32, i32* %5, align 4, !dbg !1847
  %16 = add nsw i32 %15, 1, !dbg !1847
  store i32 %16, i32* %5, align 4, !dbg !1847
  br label %6, !dbg !1849, !llvm.loop !1850

; <label>:17:                                     ; preds = %6
  ret void, !dbg !1852
}

define linkonce_odr void @_ZN3hls6streamIfElsERKf(%"class.hls::stream"*, float* dereferenceable(4)) #0 comdat align 2 !dbg !1853 !xidane.fname !1854 !xidane.function_declaration_type !1855 !xidane.function_declaration_filename !1856 {
  %3 = alloca %"class.hls::stream"*, align 4
  %4 = alloca float*, align 4
  store %"class.hls::stream"* %0, %"class.hls::stream"** %3, align 4
  call void @llvm.dbg.declare(metadata %"class.hls::stream"** %3, metadata !1857, metadata !1650), !dbg !1859
  store float* %1, float** %4, align 4
  call void @llvm.dbg.declare(metadata float** %4, metadata !1860, metadata !1650), !dbg !1861
  %5 = load %"class.hls::stream"*, %"class.hls::stream"** %3, align 4
  %6 = load float*, float** %4, align 4, !dbg !1862
  call void @_ZN3hls6streamIfE5writeERKf(%"class.hls::stream"* %5, float* dereferenceable(4) %6), !dbg !1863
  ret void, !dbg !1864
}

define void @_Z10calulationRN3hls6streamIfEEPA144_fPA169_f(%"class.hls::stream"* dereferenceable(68), [144 x float]*, [169 x float]*) #0 !dbg !1865 !xidane.fname !1868 !xidane.function_declaration_type !1869 !xidane.function_declaration_filename !1648 {
  %4 = alloca %"class.hls::stream"*, align 4
  %5 = alloca [144 x float]*, align 4
  %6 = alloca [169 x float]*, align 4
  %7 = alloca i32, align 4
  %8 = alloca i32, align 4
  %9 = alloca float, align 4
  %10 = alloca i32, align 4
  store %"class.hls::stream"* %0, %"class.hls::stream"** %4, align 4
  call void @llvm.dbg.declare(metadata %"class.hls::stream"** %4, metadata !1870, metadata !1650), !dbg !1871
  store [144 x float]* %1, [144 x float]** %5, align 4
  call void @llvm.dbg.declare(metadata [144 x float]** %5, metadata !1872, metadata !1650), !dbg !1873
  store [169 x float]* %2, [169 x float]** %6, align 4
  call void @llvm.dbg.declare(metadata [169 x float]** %6, metadata !1874, metadata !1650), !dbg !1875
  call void @llvm.dbg.declare(metadata i32* %7, metadata !1876, metadata !1650), !dbg !1877
  store i32 0, i32* %7, align 4, !dbg !1878
  br label %11, !dbg !1880

; <label>:11:                                     ; preds = %53, %3
  %12 = load i32, i32* %7, align 4, !dbg !1881
  %13 = icmp slt i32 %12, 144, !dbg !1884
  br i1 %13, label %14, label %56, !dbg !1885

; <label>:14:                                     ; preds = %11
  call void @llvm.dbg.declare(metadata i32* %8, metadata !1886, metadata !1650), !dbg !1889
  store i32 0, i32* %8, align 4, !dbg !1889
  br label %15, !dbg !1890

; <label>:15:                                     ; preds = %49, %14
  %16 = load i32, i32* %8, align 4, !dbg !1891
  %17 = icmp slt i32 %16, 169, !dbg !1894
  br i1 %17, label %18, label %52, !dbg !1895

; <label>:18:                                     ; preds = %15
  call void @llvm.dbg.declare(metadata float* %9, metadata !1896, metadata !1650), !dbg !1898
  %19 = load %"class.hls::stream"*, %"class.hls::stream"** %4, align 4, !dbg !1899
  %20 = call float @_ZN3hls6streamIfE4readEv(%"class.hls::stream"* %19), !dbg !1900
  store float %20, float* %9, align 4, !dbg !1898
  call void @llvm.dbg.declare(metadata i32* %10, metadata !1901, metadata !1650), !dbg !1903
  store i32 0, i32* %10, align 4, !dbg !1903
  br label %21, !dbg !1904

; <label>:21:                                     ; preds = %45, %18
  %22 = load i32, i32* %10, align 4, !dbg !1905
  %23 = icmp slt i32 %22, 32, !dbg !1908
  br i1 %23, label %24, label %48, !dbg !1909

; <label>:24:                                     ; preds = %21
  %25 = load i32, i32* %8, align 4, !dbg !1910
  %26 = load i32, i32* %10, align 4, !dbg !1912
  %27 = load [169 x float]*, [169 x float]** %6, align 4, !dbg !1913
  %28 = getelementptr inbounds [169 x float], [169 x float]* %27, i32 %26, !dbg !1913
  %29 = getelementptr inbounds [169 x float], [169 x float]* %28, i32 0, i32 %25, !dbg !1913
  %30 = load float, float* %29, align 4, !dbg !1913
  %31 = load i32, i32* %7, align 4, !dbg !1914
  %32 = load i32, i32* %10, align 4, !dbg !1915
  %33 = load [144 x float]*, [144 x float]** %5, align 4, !dbg !1916
  %34 = getelementptr inbounds [144 x float], [144 x float]* %33, i32 %32, !dbg !1916
  %35 = getelementptr inbounds [144 x float], [144 x float]* %34, i32 0, i32 %31, !dbg !1916
  %36 = load float, float* %35, align 4, !dbg !1916
  %37 = load float, float* %9, align 4, !dbg !1917
  %38 = fmul float %36, %37, !dbg !1918
  %39 = fadd float %30, %38, !dbg !1919
  %40 = load i32, i32* %8, align 4, !dbg !1920
  %41 = load i32, i32* %10, align 4, !dbg !1921
  %42 = load [169 x float]*, [169 x float]** %6, align 4, !dbg !1922
  %43 = getelementptr inbounds [169 x float], [169 x float]* %42, i32 %41, !dbg !1922
  %44 = getelementptr inbounds [169 x float], [169 x float]* %43, i32 0, i32 %40, !dbg !1922
  store float %39, float* %44, align 4, !dbg !1923
  br label %45, !dbg !1924

; <label>:45:                                     ; preds = %24
  %46 = load i32, i32* %10, align 4, !dbg !1925
  %47 = add nsw i32 %46, 1, !dbg !1925
  store i32 %47, i32* %10, align 4, !dbg !1925
  br label %21, !dbg !1927, !llvm.loop !1928

; <label>:48:                                     ; preds = %21
  br label %49, !dbg !1930

; <label>:49:                                     ; preds = %48
  %50 = load i32, i32* %8, align 4, !dbg !1931
  %51 = add nsw i32 %50, 1, !dbg !1931
  store i32 %51, i32* %8, align 4, !dbg !1931
  br label %15, !dbg !1933, !llvm.loop !1934

; <label>:52:                                     ; preds = %15
  br label %53, !dbg !1936

; <label>:53:                                     ; preds = %52
  %54 = load i32, i32* %7, align 4, !dbg !1937
  %55 = add nsw i32 %54, 1, !dbg !1937
  store i32 %55, i32* %7, align 4, !dbg !1937
  br label %11, !dbg !1939, !llvm.loop !1940

; <label>:56:                                     ; preds = %11
  ret void, !dbg !1942
}

define linkonce_odr float @_ZN3hls6streamIfE4readEv(%"class.hls::stream"*) #0 comdat align 2 !dbg !1943 !xidane.fname !1944 !xidane.function_declaration_type !1945 !xidane.function_declaration_filename !1856 {
  %2 = alloca %"class.hls::stream"*, align 4
  %3 = alloca float, align 4
  store %"class.hls::stream"* %0, %"class.hls::stream"** %2, align 4
  call void @llvm.dbg.declare(metadata %"class.hls::stream"** %2, metadata !1946, metadata !1650), !dbg !1947
  %4 = load %"class.hls::stream"*, %"class.hls::stream"** %2, align 4
  call void @llvm.dbg.declare(metadata float* %3, metadata !1948, metadata !1650), !dbg !1949
  %5 = getelementptr inbounds %"class.hls::stream", %"class.hls::stream"* %4, i32 0, i32 2, !dbg !1950
  %6 = call zeroext i1 @_ZNKSt5dequeIfSaIfEE5emptyEv(%"class.std::deque"* %5) #3, !dbg !1952
  br i1 %6, label %7, label %14, !dbg !1953

; <label>:7:                                      ; preds = %1
  %8 = call dereferenceable(140) %"class.std::basic_ostream"* @_ZStlsISt11char_traitsIcEERSt13basic_ostreamIcT_ES5_PKc(%"class.std::basic_ostream"* dereferenceable(140) @_ZSt4cout, i8* getelementptr inbounds ([23 x i8], [23 x i8]* @.str, i32 0, i32 0)), !dbg !1954
  %9 = getelementptr inbounds %"class.hls::stream", %"class.hls::stream"* %4, i32 0, i32 1, !dbg !1956
  %10 = call dereferenceable(140) %"class.std::basic_ostream"* @_ZStlsIcSt11char_traitsIcESaIcEERSt13basic_ostreamIT_T0_ES7_RKNSt7__cxx1112basic_stringIS4_S5_T1_EE(%"class.std::basic_ostream"* dereferenceable(140) %8, %"class.std::__cxx11::basic_string"* dereferenceable(24) %9), !dbg !1957
  %11 = call dereferenceable(140) %"class.std::basic_ostream"* @_ZStlsISt11char_traitsIcEERSt13basic_ostreamIcT_ES5_PKc(%"class.std::basic_ostream"* dereferenceable(140) %10, i8* getelementptr inbounds ([23 x i8], [23 x i8]* @.str.1, i32 0, i32 0)), !dbg !1958
  %12 = call dereferenceable(140) %"class.std::basic_ostream"* @_ZStlsISt11char_traitsIcEERSt13basic_ostreamIcT_ES5_PKc(%"class.std::basic_ostream"* dereferenceable(140) %11, i8* getelementptr inbounds ([45 x i8], [45 x i8]* @.str.2, i32 0, i32 0)), !dbg !1959
  %13 = call dereferenceable(140) %"class.std::basic_ostream"* @_ZNSolsEPFRSoS_E(%"class.std::basic_ostream"* %12, %"class.std::basic_ostream"* (%"class.std::basic_ostream"*)* @_ZSt4endlIcSt11char_traitsIcEERSt13basic_ostreamIT_T0_ES6_), !dbg !1960
  store float 0.000000e+00, float* %3, align 4, !dbg !1961
  br label %19, !dbg !1962

; <label>:14:                                     ; preds = %1
  %15 = getelementptr inbounds %"class.hls::stream", %"class.hls::stream"* %4, i32 0, i32 2, !dbg !1963
  %16 = call dereferenceable(4) float* @_ZNSt5dequeIfSaIfEE5frontEv(%"class.std::deque"* %15) #3, !dbg !1965
  %17 = load float, float* %16, align 4, !dbg !1965
  store float %17, float* %3, align 4, !dbg !1966
  %18 = getelementptr inbounds %"class.hls::stream", %"class.hls::stream"* %4, i32 0, i32 2, !dbg !1967
  call void @_ZNSt5dequeIfSaIfEE9pop_frontEv(%"class.std::deque"* %18) #3, !dbg !1968
  br label %19

; <label>:19:                                     ; preds = %14, %7
  %20 = load float, float* %3, align 4, !dbg !1969
  ret float %20, !dbg !1970
}

define void @_Z10stream_calPA144_fPfPA169_f([144 x float]*, float*, [169 x float]*) #0 personality i8* bitcast (i32 (...)* @__gxx_personality_v0 to i8*) !dbg !1971 !xidane.fname !1974 !xidane.function_declaration_type !1975 !xidane.function_declaration_filename !1648 {
  %4 = alloca [144 x float]*, align 4
  %5 = alloca float*, align 4
  %6 = alloca [169 x float]*, align 4
  %7 = alloca %"class.hls::stream", align 4
  %8 = alloca i8*
  %9 = alloca i32
  store [144 x float]* %0, [144 x float]** %4, align 4
  call void @llvm.dbg.declare(metadata [144 x float]** %4, metadata !1976, metadata !1650), !dbg !1977
  store float* %1, float** %5, align 4
  call void @llvm.dbg.declare(metadata float** %5, metadata !1978, metadata !1650), !dbg !1979
  store [169 x float]* %2, [169 x float]** %6, align 4
  call void @llvm.dbg.declare(metadata [169 x float]** %6, metadata !1980, metadata !1650), !dbg !1981
  call void @llvm.dbg.declare(metadata %"class.hls::stream"* %7, metadata !1982, metadata !1650), !dbg !1983
  %10 = call %"class.hls::stream"* @_ZN3hls6streamIfEC2Ev(%"class.hls::stream"* %7), !dbg !1983
  %11 = load float*, float** %5, align 4, !dbg !1984
  invoke void @_Z6read_BPfRN3hls6streamIfEE(float* %11, %"class.hls::stream"* dereferenceable(68) %7)
          to label %12 unwind label %17, !dbg !1985

; <label>:12:                                     ; preds = %3
  %13 = load [144 x float]*, [144 x float]** %4, align 4, !dbg !1986
  %14 = load [169 x float]*, [169 x float]** %6, align 4, !dbg !1987
  invoke void @_Z10calulationRN3hls6streamIfEEPA144_fPA169_f(%"class.hls::stream"* dereferenceable(68) %7, [144 x float]* %13, [169 x float]* %14)
          to label %15 unwind label %17, !dbg !1988

; <label>:15:                                     ; preds = %12
  %16 = call %"class.hls::stream"* @_ZN3hls6streamIfED2Ev(%"class.hls::stream"* %7) #3, !dbg !1989
  ret void, !dbg !1989

; <label>:17:                                     ; preds = %12, %3
  %18 = landingpad { i8*, i32 }
          cleanup, !dbg !1990
  %19 = extractvalue { i8*, i32 } %18, 0, !dbg !1990
  store i8* %19, i8** %8, align 4, !dbg !1990
  %20 = extractvalue { i8*, i32 } %18, 1, !dbg !1990
  store i32 %20, i32* %9, align 4, !dbg !1990
  %21 = call %"class.hls::stream"* @_ZN3hls6streamIfED2Ev(%"class.hls::stream"* %7) #3, !dbg !1990
  br label %22, !dbg !1990

; <label>:22:                                     ; preds = %17
  %23 = load i8*, i8** %8, align 4, !dbg !1992
  %24 = load i32, i32* %9, align 4, !dbg !1992
  %25 = insertvalue { i8*, i32 } undef, i8* %23, 0, !dbg !1992
  %26 = insertvalue { i8*, i32 } %25, i32 %24, 1, !dbg !1992
  resume { i8*, i32 } %26, !dbg !1992
}

define linkonce_odr %"class.hls::stream"* @_ZN3hls6streamIfEC2Ev(%"class.hls::stream"* returned) unnamed_addr #0 comdat align 2 personality i8* bitcast (i32 (...)* @__gxx_personality_v0 to i8*) !dbg !439 !xidane.fname !1994 !xidane.function_declaration_type !1636 !xidane.function_declaration_filename !1856 {
  %2 = alloca %"class.hls::stream"*, align 4
  %3 = alloca %"class.hls::stream"*, align 4
  %4 = alloca i8*
  %5 = alloca i32
  %6 = alloca %"class.std::__cxx11::basic_stringstream", align 4
  %7 = alloca i8*, align 4
  %8 = alloca %"class.std::__cxx11::basic_string", align 4
  %9 = alloca %"class.std::__cxx11::basic_string", align 4
  store %"class.hls::stream"* %0, %"class.hls::stream"** %3, align 4
  call void @llvm.dbg.declare(metadata %"class.hls::stream"** %3, metadata !1995, metadata !1650), !dbg !1996
  %10 = load %"class.hls::stream"*, %"class.hls::stream"** %3, align 4
  store %"class.hls::stream"* %10, %"class.hls::stream"** %2, align 4
  %11 = bitcast %"class.hls::stream"* %10 to i32 (...)***, !dbg !1997
  store i32 (...)** bitcast (i8** getelementptr inbounds ([4 x i8*], [4 x i8*]* @_ZTVN3hls6streamIfEE, i32 0, i32 2) to i32 (...)**), i32 (...)*** %11, align 4, !dbg !1997
  %12 = getelementptr inbounds %"class.hls::stream", %"class.hls::stream"* %10, i32 0, i32 1, !dbg !1998
  %13 = call %"class.std::__cxx11::basic_string"* @_ZNSt7__cxx1112basic_stringIcSt11char_traitsIcESaIcEEC1Ev(%"class.std::__cxx11::basic_string"* %12) #3, !dbg !1998
  %14 = getelementptr inbounds %"class.hls::stream", %"class.hls::stream"* %10, i32 0, i32 2, !dbg !1998
  %15 = invoke %"class.std::deque"* @_ZNSt5dequeIfSaIfEEC2Ev(%"class.std::deque"* %14)
          to label %16 unwind label %40, !dbg !1998

; <label>:16:                                     ; preds = %1
  call void @llvm.dbg.declare(metadata %"class.std::__cxx11::basic_stringstream"* %6, metadata !1999, metadata !1650), !dbg !2005
  %17 = invoke i32 @_ZStorSt13_Ios_OpenmodeS_(i32 16, i32 8)
          to label %18 unwind label %44, !dbg !2005

; <label>:18:                                     ; preds = %16
  %19 = invoke %"class.std::__cxx11::basic_stringstream"* @_ZNSt7__cxx1118basic_stringstreamIcSt11char_traitsIcESaIcEEC1ESt13_Ios_Openmode(%"class.std::__cxx11::basic_stringstream"* %6, i32 %17)
          to label %20 unwind label %44, !dbg !2006

; <label>:20:                                     ; preds = %18
  call void @llvm.dbg.declare(metadata i8** %7, metadata !2008, metadata !1650), !dbg !2009
  %21 = icmp eq %"class.hls::stream"* %10, null, !dbg !2010
  br i1 %21, label %22, label %24, !dbg !2010

; <label>:22:                                     ; preds = %20
  invoke void @__cxa_bad_typeid() #13
          to label %23 unwind label %48, !dbg !2011

; <label>:23:                                     ; preds = %22
  unreachable, !dbg !2012

; <label>:24:                                     ; preds = %20
  %25 = bitcast %"class.hls::stream"* %10 to %"class.std::type_info"***, !dbg !2014
  %26 = load %"class.std::type_info"**, %"class.std::type_info"*** %25, align 4, !dbg !2014
  %27 = getelementptr inbounds %"class.std::type_info"*, %"class.std::type_info"** %26, i64 -1, !dbg !2014
  %28 = load %"class.std::type_info"*, %"class.std::type_info"** %27, align 4, !dbg !2014
  %29 = call i8* @_ZNKSt9type_info4nameEv(%"class.std::type_info"* %28) #3, !dbg !2016
  %30 = invoke i8* @__cxa_demangle(i8* %29, i8* null, i32* null, i32* null)
          to label %31 unwind label %48, !dbg !2017

; <label>:31:                                     ; preds = %24
  store i8* %30, i8** %7, align 4, !dbg !2018
  %32 = load i8*, i8** %7, align 4, !dbg !2020
  %33 = icmp ne i8* %32, null, !dbg !2020
  br i1 %33, label %34, label %52, !dbg !2022

; <label>:34:                                     ; preds = %31
  %35 = getelementptr inbounds %"class.hls::stream", %"class.hls::stream"* %10, i32 0, i32 1, !dbg !2023
  %36 = load i8*, i8** %7, align 4, !dbg !2025
  %37 = invoke dereferenceable(24) %"class.std::__cxx11::basic_string"* @_ZNSt7__cxx1112basic_stringIcSt11char_traitsIcESaIcEEaSEPKc(%"class.std::__cxx11::basic_string"* %35, i8* %36)
          to label %38 unwind label %48, !dbg !2026

; <label>:38:                                     ; preds = %34
  %39 = load i8*, i8** %7, align 4, !dbg !2027
  call void @free(i8* %39) #3, !dbg !2028
  br label %56, !dbg !2029

; <label>:40:                                     ; preds = %1
  %41 = landingpad { i8*, i32 }
          cleanup, !dbg !2030
  %42 = extractvalue { i8*, i32 } %41, 0, !dbg !2030
  store i8* %42, i8** %4, align 4, !dbg !2030
  %43 = extractvalue { i8*, i32 } %41, 1, !dbg !2030
  store i32 %43, i32* %5, align 4, !dbg !2030
  br label %88, !dbg !2030

; <label>:44:                                     ; preds = %18, %16
  %45 = landingpad { i8*, i32 }
          cleanup, !dbg !2031
  %46 = extractvalue { i8*, i32 } %45, 0, !dbg !2031
  store i8* %46, i8** %4, align 4, !dbg !2031
  %47 = extractvalue { i8*, i32 } %45, 1, !dbg !2031
  store i32 %47, i32* %5, align 4, !dbg !2031
  br label %86, !dbg !2031

; <label>:48:                                     ; preds = %63, %56, %52, %34, %24, %22
  %49 = landingpad { i8*, i32 }
          cleanup, !dbg !2032
  %50 = extractvalue { i8*, i32 } %49, 0, !dbg !2032
  store i8* %50, i8** %4, align 4, !dbg !2032
  %51 = extractvalue { i8*, i32 } %49, 1, !dbg !2032
  store i32 %51, i32* %5, align 4, !dbg !2032
  br label %84, !dbg !2032

; <label>:52:                                     ; preds = %31
  %53 = getelementptr inbounds %"class.hls::stream", %"class.hls::stream"* %10, i32 0, i32 1, !dbg !2033
  %54 = invoke dereferenceable(24) %"class.std::__cxx11::basic_string"* @_ZNSt7__cxx1112basic_stringIcSt11char_traitsIcESaIcEEaSEPKc(%"class.std::__cxx11::basic_string"* %53, i8* getelementptr inbounds ([11 x i8], [11 x i8]* @.str.3, i32 0, i32 0))
          to label %55 unwind label %48, !dbg !2035

; <label>:55:                                     ; preds = %52
  br label %56

; <label>:56:                                     ; preds = %55, %38
  %57 = bitcast %"class.std::__cxx11::basic_stringstream"* %6 to i8*, !dbg !2036
  %58 = getelementptr inbounds i8, i8* %57, i32 8, !dbg !2036
  %59 = bitcast i8* %58 to %"class.std::basic_ostream"*, !dbg !2036
  %60 = load i32, i32* @_ZZN3hls6streamIfEC1EvE8_counter, align 4, !dbg !2037
  %61 = add i32 %60, 1, !dbg !2037
  store i32 %61, i32* @_ZZN3hls6streamIfEC1EvE8_counter, align 4, !dbg !2037
  %62 = invoke dereferenceable(140) %"class.std::basic_ostream"* @_ZNSolsEj(%"class.std::basic_ostream"* %59, i32 %60)
          to label %63 unwind label %48, !dbg !2038

; <label>:63:                                     ; preds = %56
  %64 = getelementptr inbounds %"class.hls::stream", %"class.hls::stream"* %10, i32 0, i32 1, !dbg !2039
  invoke void @_ZNKSt7__cxx1118basic_stringstreamIcSt11char_traitsIcESaIcEE3strEv(%"class.std::__cxx11::basic_string"* sret %9, %"class.std::__cxx11::basic_stringstream"* %6)
          to label %65 unwind label %48, !dbg !2040

; <label>:65:                                     ; preds = %63
  invoke void @_ZStplIcSt11char_traitsIcESaIcEENSt7__cxx1112basic_stringIT_T0_T1_EEPKS5_OS8_(%"class.std::__cxx11::basic_string"* sret %8, i8* getelementptr inbounds ([2 x i8], [2 x i8]* @.str.4, i32 0, i32 0), %"class.std::__cxx11::basic_string"* dereferenceable(24) %9)
          to label %66 unwind label %73, !dbg !2041

; <label>:66:                                     ; preds = %65
  %67 = invoke dereferenceable(24) %"class.std::__cxx11::basic_string"* @_ZNSt7__cxx1112basic_stringIcSt11char_traitsIcESaIcEEpLERKS4_(%"class.std::__cxx11::basic_string"* %64, %"class.std::__cxx11::basic_string"* dereferenceable(24) %8)
          to label %68 unwind label %77, !dbg !2042

; <label>:68:                                     ; preds = %66
  %69 = call %"class.std::__cxx11::basic_string"* @_ZNSt7__cxx1112basic_stringIcSt11char_traitsIcESaIcEED1Ev(%"class.std::__cxx11::basic_string"* %8) #3, !dbg !2043
  %70 = call %"class.std::__cxx11::basic_string"* @_ZNSt7__cxx1112basic_stringIcSt11char_traitsIcESaIcEED1Ev(%"class.std::__cxx11::basic_string"* %9) #3, !dbg !2044
  %71 = call %"class.std::__cxx11::basic_stringstream"* @_ZNSt7__cxx1118basic_stringstreamIcSt11char_traitsIcESaIcEED1Ev(%"class.std::__cxx11::basic_stringstream"* %6) #3, !dbg !2046
  %72 = load %"class.hls::stream"*, %"class.hls::stream"** %2, align 4, !dbg !2046
  ret %"class.hls::stream"* %72, !dbg !2046

; <label>:73:                                     ; preds = %65
  %74 = landingpad { i8*, i32 }
          cleanup, !dbg !2048
  %75 = extractvalue { i8*, i32 } %74, 0, !dbg !2048
  store i8* %75, i8** %4, align 4, !dbg !2048
  %76 = extractvalue { i8*, i32 } %74, 1, !dbg !2048
  store i32 %76, i32* %5, align 4, !dbg !2048
  br label %82, !dbg !2048

; <label>:77:                                     ; preds = %66
  %78 = landingpad { i8*, i32 }
          cleanup, !dbg !2049
  %79 = extractvalue { i8*, i32 } %78, 0, !dbg !2049
  store i8* %79, i8** %4, align 4, !dbg !2049
  %80 = extractvalue { i8*, i32 } %78, 1, !dbg !2049
  store i32 %80, i32* %5, align 4, !dbg !2049
  %81 = call %"class.std::__cxx11::basic_string"* @_ZNSt7__cxx1112basic_stringIcSt11char_traitsIcESaIcEED1Ev(%"class.std::__cxx11::basic_string"* %8) #3, !dbg !2050
  br label %82, !dbg !2050

; <label>:82:                                     ; preds = %77, %73
  %83 = call %"class.std::__cxx11::basic_string"* @_ZNSt7__cxx1112basic_stringIcSt11char_traitsIcESaIcEED1Ev(%"class.std::__cxx11::basic_string"* %9) #3, !dbg !2051
  br label %84, !dbg !2051

; <label>:84:                                     ; preds = %82, %48
  %85 = call %"class.std::__cxx11::basic_stringstream"* @_ZNSt7__cxx1118basic_stringstreamIcSt11char_traitsIcESaIcEED1Ev(%"class.std::__cxx11::basic_stringstream"* %6) #3, !dbg !2053
  br label %86, !dbg !2053

; <label>:86:                                     ; preds = %84, %44
  %87 = call %"class.std::deque"* @_ZNSt5dequeIfSaIfEED2Ev(%"class.std::deque"* %14) #3, !dbg !2055
  br label %88, !dbg !2055

; <label>:88:                                     ; preds = %86, %40
  %89 = call %"class.std::__cxx11::basic_string"* @_ZNSt7__cxx1112basic_stringIcSt11char_traitsIcESaIcEED1Ev(%"class.std::__cxx11::basic_string"* %12) #3, !dbg !2057
  br label %90, !dbg !2057

; <label>:90:                                     ; preds = %88
  %91 = load i8*, i8** %4, align 4, !dbg !2059
  %92 = load i32, i32* %5, align 4, !dbg !2059
  %93 = insertvalue { i8*, i32 } undef, i8* %91, 0, !dbg !2059
  %94 = insertvalue { i8*, i32 } %93, i32 %92, 1, !dbg !2059
  resume { i8*, i32 } %94, !dbg !2059
}

declare i32 @__gxx_personality_v0(...)

; Function Attrs: nounwind
define linkonce_odr %"class.hls::stream"* @_ZN3hls6streamIfED2Ev(%"class.hls::stream"* returned) unnamed_addr #4 comdat align 2 personality i8* bitcast (i32 (...)* @__gxx_personality_v0 to i8*) !dbg !2061 !xidane.fname !2062 !xidane.function_declaration_type !1636 !xidane.function_declaration_filename !1856 {
  %2 = alloca %"class.hls::stream"*, align 4
  %3 = alloca %"class.hls::stream"*, align 4
  %4 = alloca i8*
  %5 = alloca i32
  store %"class.hls::stream"* %0, %"class.hls::stream"** %3, align 4
  call void @llvm.dbg.declare(metadata %"class.hls::stream"** %3, metadata !2063, metadata !1650), !dbg !2064
  %6 = load %"class.hls::stream"*, %"class.hls::stream"** %3, align 4
  store %"class.hls::stream"* %6, %"class.hls::stream"** %2, align 4
  %7 = bitcast %"class.hls::stream"* %6 to i32 (...)***, !dbg !2065
  store i32 (...)** bitcast (i8** getelementptr inbounds ([4 x i8*], [4 x i8*]* @_ZTVN3hls6streamIfEE, i32 0, i32 2) to i32 (...)**), i32 (...)*** %7, align 4, !dbg !2065
  %8 = getelementptr inbounds %"class.hls::stream", %"class.hls::stream"* %6, i32 0, i32 2, !dbg !2066
  %9 = call zeroext i1 @_ZNKSt5dequeIfSaIfEE5emptyEv(%"class.std::deque"* %8) #3, !dbg !2069
  br i1 %9, label %32, label %10, !dbg !2070

; <label>:10:                                     ; preds = %1
  %11 = invoke dereferenceable(140) %"class.std::basic_ostream"* @_ZStlsISt11char_traitsIcEERSt13basic_ostreamIcT_ES5_PKc(%"class.std::basic_ostream"* dereferenceable(140) @_ZSt4cout, i8* getelementptr inbounds ([23 x i8], [23 x i8]* @.str, i32 0, i32 0))
          to label %12 unwind label %22, !dbg !2071

; <label>:12:                                     ; preds = %10
  %13 = getelementptr inbounds %"class.hls::stream", %"class.hls::stream"* %6, i32 0, i32 1, !dbg !2073
  %14 = invoke dereferenceable(140) %"class.std::basic_ostream"* @_ZStlsIcSt11char_traitsIcESaIcEERSt13basic_ostreamIT_T0_ES7_RKNSt7__cxx1112basic_stringIS4_S5_T1_EE(%"class.std::basic_ostream"* dereferenceable(140) %11, %"class.std::__cxx11::basic_string"* dereferenceable(24) %13)
          to label %15 unwind label %22, !dbg !2074

; <label>:15:                                     ; preds = %12
  %16 = invoke dereferenceable(140) %"class.std::basic_ostream"* @_ZStlsISt11char_traitsIcEERSt13basic_ostreamIcT_ES5_PKc(%"class.std::basic_ostream"* dereferenceable(140) %14, i8* getelementptr inbounds ([26 x i8], [26 x i8]* @.str.5, i32 0, i32 0))
          to label %17 unwind label %22, !dbg !2075

; <label>:17:                                     ; preds = %15
  %18 = invoke dereferenceable(140) %"class.std::basic_ostream"* @_ZStlsISt11char_traitsIcEERSt13basic_ostreamIcT_ES5_PKc(%"class.std::basic_ostream"* dereferenceable(140) %16, i8* getelementptr inbounds ([45 x i8], [45 x i8]* @.str.2, i32 0, i32 0))
          to label %19 unwind label %22, !dbg !2076

; <label>:19:                                     ; preds = %17
  %20 = invoke dereferenceable(140) %"class.std::basic_ostream"* @_ZNSolsEPFRSoS_E(%"class.std::basic_ostream"* %18, %"class.std::basic_ostream"* (%"class.std::basic_ostream"*)* @_ZSt4endlIcSt11char_traitsIcEERSt13basic_ostreamIT_T0_ES6_)
          to label %21 unwind label %22, !dbg !2077

; <label>:21:                                     ; preds = %19
  br label %32, !dbg !2078

; <label>:22:                                     ; preds = %19, %17, %15, %12, %10
  %23 = landingpad { i8*, i32 }
          cleanup
          filter [0 x i8*] zeroinitializer, !dbg !2079
  %24 = extractvalue { i8*, i32 } %23, 0, !dbg !2079
  store i8* %24, i8** %4, align 4, !dbg !2079
  %25 = extractvalue { i8*, i32 } %23, 1, !dbg !2079
  store i32 %25, i32* %5, align 4, !dbg !2079
  %26 = getelementptr inbounds %"class.hls::stream", %"class.hls::stream"* %6, i32 0, i32 2, !dbg !2080
  %27 = call %"class.std::deque"* @_ZNSt5dequeIfSaIfEED2Ev(%"class.std::deque"* %26) #3, !dbg !2080
  %28 = getelementptr inbounds %"class.hls::stream", %"class.hls::stream"* %6, i32 0, i32 1, !dbg !2080
  %29 = call %"class.std::__cxx11::basic_string"* @_ZNSt7__cxx1112basic_stringIcSt11char_traitsIcESaIcEED1Ev(%"class.std::__cxx11::basic_string"* %28) #3, !dbg !2081
  br label %30, !dbg !2080

; <label>:30:                                     ; preds = %22
  %31 = load i8*, i8** %4, align 4, !dbg !2083
  call void @__cxa_call_unexpected(i8* %31) #13, !dbg !2083
  unreachable, !dbg !2083

; <label>:32:                                     ; preds = %21, %1
  %33 = getelementptr inbounds %"class.hls::stream", %"class.hls::stream"* %6, i32 0, i32 2, !dbg !2085
  %34 = call %"class.std::deque"* @_ZNSt5dequeIfSaIfEED2Ev(%"class.std::deque"* %33) #3, !dbg !2085
  %35 = getelementptr inbounds %"class.hls::stream", %"class.hls::stream"* %6, i32 0, i32 1, !dbg !2085
  %36 = call %"class.std::__cxx11::basic_string"* @_ZNSt7__cxx1112basic_stringIcSt11char_traitsIcESaIcEED1Ev(%"class.std::__cxx11::basic_string"* %35) #3, !dbg !2087
  %37 = load %"class.hls::stream"*, %"class.hls::stream"** %2, align 4, !dbg !2085
  ret %"class.hls::stream"* %37, !dbg !2085
}

define void @cal_gemm(float*, float*, float*) #0 !dbg !2089 !xidane.fname !2092 !xidane.function_declaration_type !2093 !xidane.function_declaration_filename !2094 !xidane.function_argument_annotation !2095 !xidane.ExternC !2096 {
  %4 = alloca float*, align 4
  %5 = alloca float*, align 4
  %6 = alloca float*, align 4
  %7 = alloca [32 x [144 x float]], align 4
  %8 = alloca [32 x [169 x float]], align 4
  store float* %0, float** %4, align 4
  call void @llvm.dbg.declare(metadata float** %4, metadata !2097, metadata !1650), !dbg !2098
  store float* %1, float** %5, align 4
  call void @llvm.dbg.declare(metadata float** %5, metadata !2099, metadata !1650), !dbg !2100
  store float* %2, float** %6, align 4
  call void @llvm.dbg.declare(metadata float** %6, metadata !2101, metadata !1650), !dbg !2102
  call void @llvm.dbg.declare(metadata [32 x [144 x float]]* %7, metadata !2103, metadata !1650), !dbg !2107
  call void @llvm.dbg.declare(metadata [32 x [169 x float]]* %8, metadata !2108, metadata !1650), !dbg !2111
  %9 = load float*, float** %4, align 4, !dbg !2112
  %10 = getelementptr inbounds [32 x [144 x float]], [32 x [144 x float]]* %7, i32 0, i32 0, !dbg !2113
  %11 = getelementptr inbounds [32 x [169 x float]], [32 x [169 x float]]* %8, i32 0, i32 0, !dbg !2114
  call void @_Z11cal_initialPfPA144_fPA169_f(float* %9, [144 x float]* %10, [169 x float]* %11), !dbg !2115
  %12 = getelementptr inbounds [32 x [144 x float]], [32 x [144 x float]]* %7, i32 0, i32 0, !dbg !2116
  %13 = load float*, float** %5, align 4, !dbg !2117
  %14 = getelementptr inbounds [32 x [169 x float]], [32 x [169 x float]]* %8, i32 0, i32 0, !dbg !2118
  call void @_Z10stream_calPA144_fPfPA169_f([144 x float]* %12, float* %13, [169 x float]* %14), !dbg !2119
  %15 = getelementptr inbounds [32 x [169 x float]], [32 x [169 x float]]* %8, i32 0, i32 0, !dbg !2120
  %16 = load float*, float** %6, align 4, !dbg !2121
  call void @_Z9write_outPA169_fPf([169 x float]* %15, float* %16), !dbg !2122
  ret void, !dbg !2123
}

define linkonce_odr void @_ZN3hls6streamIfE5writeERKf(%"class.hls::stream"*, float* dereferenceable(4)) #0 comdat align 2 !dbg !2124 !xidane.fname !2125 !xidane.function_declaration_type !1855 !xidane.function_declaration_filename !1856 {
  %3 = alloca %"class.hls::stream"*, align 4
  %4 = alloca float*, align 4
  store %"class.hls::stream"* %0, %"class.hls::stream"** %3, align 4
  call void @llvm.dbg.declare(metadata %"class.hls::stream"** %3, metadata !2126, metadata !1650), !dbg !2127
  store float* %1, float** %4, align 4
  call void @llvm.dbg.declare(metadata float** %4, metadata !2128, metadata !1650), !dbg !2129
  %5 = load %"class.hls::stream"*, %"class.hls::stream"** %3, align 4
  %6 = getelementptr inbounds %"class.hls::stream", %"class.hls::stream"* %5, i32 0, i32 2, !dbg !2130
  %7 = load float*, float** %4, align 4, !dbg !2131
  call void @_ZNSt5dequeIfSaIfEE9push_backERKf(%"class.std::deque"* %6, float* dereferenceable(4) %7), !dbg !2132
  ret void, !dbg !2133
}

define linkonce_odr void @_ZNSt5dequeIfSaIfEE9push_backERKf(%"class.std::deque"*, float* dereferenceable(4)) #0 comdat align 2 !dbg !2134 !xidane.fname !2135 !xidane.function_declaration_type !2136 !xidane.function_declaration_filename !2137 {
  %3 = alloca %"class.std::deque"*, align 4
  %4 = alloca float*, align 4
  store %"class.std::deque"* %0, %"class.std::deque"** %3, align 4
  call void @llvm.dbg.declare(metadata %"class.std::deque"** %3, metadata !2138, metadata !1650), !dbg !2140
  store float* %1, float** %4, align 4
  call void @llvm.dbg.declare(metadata float** %4, metadata !2141, metadata !1650), !dbg !2142
  %5 = load %"class.std::deque"*, %"class.std::deque"** %3, align 4
  %6 = bitcast %"class.std::deque"* %5 to %"class.std::_Deque_base"*, !dbg !2143
  %7 = getelementptr inbounds %"class.std::_Deque_base", %"class.std::_Deque_base"* %6, i32 0, i32 0, !dbg !2143
  %8 = getelementptr inbounds %"struct.std::_Deque_base<float, std::allocator<float> >::_Deque_impl", %"struct.std::_Deque_base<float, std::allocator<float> >::_Deque_impl"* %7, i32 0, i32 3, !dbg !2145
  %9 = getelementptr inbounds %"struct.std::_Deque_iterator", %"struct.std::_Deque_iterator"* %8, i32 0, i32 0, !dbg !2146
  %10 = load float*, float** %9, align 4, !dbg !2146
  %11 = bitcast %"class.std::deque"* %5 to %"class.std::_Deque_base"*, !dbg !2147
  %12 = getelementptr inbounds %"class.std::_Deque_base", %"class.std::_Deque_base"* %11, i32 0, i32 0, !dbg !2147
  %13 = getelementptr inbounds %"struct.std::_Deque_base<float, std::allocator<float> >::_Deque_impl", %"struct.std::_Deque_base<float, std::allocator<float> >::_Deque_impl"* %12, i32 0, i32 3, !dbg !2148
  %14 = getelementptr inbounds %"struct.std::_Deque_iterator", %"struct.std::_Deque_iterator"* %13, i32 0, i32 2, !dbg !2149
  %15 = load float*, float** %14, align 4, !dbg !2149
  %16 = getelementptr inbounds float, float* %15, i32 -1, !dbg !2150
  %17 = icmp ne float* %10, %16, !dbg !2151
  br i1 %17, label %18, label %34, !dbg !2152

; <label>:18:                                     ; preds = %2
  %19 = bitcast %"class.std::deque"* %5 to %"class.std::_Deque_base"*, !dbg !2153
  %20 = getelementptr inbounds %"class.std::_Deque_base", %"class.std::_Deque_base"* %19, i32 0, i32 0, !dbg !2153
  %21 = bitcast %"struct.std::_Deque_base<float, std::allocator<float> >::_Deque_impl"* %20 to %"class.std::allocator.0"*, !dbg !2155
  %22 = bitcast %"class.std::deque"* %5 to %"class.std::_Deque_base"*, !dbg !2156
  %23 = getelementptr inbounds %"class.std::_Deque_base", %"class.std::_Deque_base"* %22, i32 0, i32 0, !dbg !2156
  %24 = getelementptr inbounds %"struct.std::_Deque_base<float, std::allocator<float> >::_Deque_impl", %"struct.std::_Deque_base<float, std::allocator<float> >::_Deque_impl"* %23, i32 0, i32 3, !dbg !2157
  %25 = getelementptr inbounds %"struct.std::_Deque_iterator", %"struct.std::_Deque_iterator"* %24, i32 0, i32 0, !dbg !2158
  %26 = load float*, float** %25, align 4, !dbg !2158
  %27 = load float*, float** %4, align 4, !dbg !2159
  call void @_ZNSt16allocator_traitsISaIfEE9constructIfJRKfEEEvRS0_PT_DpOT0_(%"class.std::allocator.0"* dereferenceable(1) %21, float* %26, float* dereferenceable(4) %27), !dbg !2160
  %28 = bitcast %"class.std::deque"* %5 to %"class.std::_Deque_base"*, !dbg !2161
  %29 = getelementptr inbounds %"class.std::_Deque_base", %"class.std::_Deque_base"* %28, i32 0, i32 0, !dbg !2161
  %30 = getelementptr inbounds %"struct.std::_Deque_base<float, std::allocator<float> >::_Deque_impl", %"struct.std::_Deque_base<float, std::allocator<float> >::_Deque_impl"* %29, i32 0, i32 3, !dbg !2162
  %31 = getelementptr inbounds %"struct.std::_Deque_iterator", %"struct.std::_Deque_iterator"* %30, i32 0, i32 0, !dbg !2163
  %32 = load float*, float** %31, align 4, !dbg !2164
  %33 = getelementptr inbounds float, float* %32, i32 1, !dbg !2164
  store float* %33, float** %31, align 4, !dbg !2164
  br label %36, !dbg !2165

; <label>:34:                                     ; preds = %2
  %35 = load float*, float** %4, align 4, !dbg !2166
  call void @_ZNSt5dequeIfSaIfEE16_M_push_back_auxIJRKfEEEvDpOT_(%"class.std::deque"* %5, float* dereferenceable(4) %35), !dbg !2167
  br label %36

; <label>:36:                                     ; preds = %34, %18
  ret void, !dbg !2168
}

define linkonce_odr void @_ZNSt16allocator_traitsISaIfEE9constructIfJRKfEEEvRS0_PT_DpOT0_(%"class.std::allocator.0"* dereferenceable(1), float*, float* dereferenceable(4)) #0 comdat align 2 !dbg !2169 !xidane.fname !2178 !xidane.function_declaration_type !2179 !xidane.function_declaration_filename !2180 {
  %4 = alloca %"class.std::allocator.0"*, align 4
  %5 = alloca float*, align 4
  %6 = alloca float*, align 4
  store %"class.std::allocator.0"* %0, %"class.std::allocator.0"** %4, align 4
  call void @llvm.dbg.declare(metadata %"class.std::allocator.0"** %4, metadata !2181, metadata !1650), !dbg !2182
  store float* %1, float** %5, align 4
  call void @llvm.dbg.declare(metadata float** %5, metadata !2183, metadata !1650), !dbg !2184
  store float* %2, float** %6, align 4
  call void @llvm.dbg.declare(metadata float** %6, metadata !2185, metadata !1650), !dbg !2186
  %7 = load %"class.std::allocator.0"*, %"class.std::allocator.0"** %4, align 4, !dbg !2187
  %8 = bitcast %"class.std::allocator.0"* %7 to %"class.__gnu_cxx::new_allocator.1"*, !dbg !2187
  %9 = load float*, float** %5, align 4, !dbg !2188
  %10 = load float*, float** %6, align 4, !dbg !2189
  %11 = call dereferenceable(4) float* @_ZSt7forwardIRKfEOT_RNSt16remove_referenceIS2_E4typeE(float* dereferenceable(4) %10) #3, !dbg !2190
  call void @_ZN9__gnu_cxx13new_allocatorIfE9constructIfJRKfEEEvPT_DpOT0_(%"class.__gnu_cxx::new_allocator.1"* %8, float* %9, float* dereferenceable(4) %11), !dbg !2191
  ret void, !dbg !2193
}

define linkonce_odr void @_ZNSt5dequeIfSaIfEE16_M_push_back_auxIJRKfEEEvDpOT_(%"class.std::deque"*, float* dereferenceable(4)) #0 comdat align 2 personality i8* bitcast (i32 (...)* @__gxx_personality_v0 to i8*) !dbg !2194 !xidane.fname !2200 !xidane.function_declaration_type !2201 !xidane.function_declaration_filename !2137 {
  %3 = alloca %"class.std::deque"*, align 4
  %4 = alloca float*, align 4
  %5 = alloca i8*
  %6 = alloca i32
  store %"class.std::deque"* %0, %"class.std::deque"** %3, align 4
  call void @llvm.dbg.declare(metadata %"class.std::deque"** %3, metadata !2202, metadata !1650), !dbg !2203
  store float* %1, float** %4, align 4
  call void @llvm.dbg.declare(metadata float** %4, metadata !2204, metadata !1650), !dbg !2205
  %7 = load %"class.std::deque"*, %"class.std::deque"** %3, align 4
  call void @_ZNSt5dequeIfSaIfEE22_M_reserve_map_at_backEj(%"class.std::deque"* %7, i32 1), !dbg !2206
  %8 = bitcast %"class.std::deque"* %7 to %"class.std::_Deque_base"*, !dbg !2207
  %9 = call float* @_ZNSt11_Deque_baseIfSaIfEE16_M_allocate_nodeEv(%"class.std::_Deque_base"* %8), !dbg !2207
  %10 = bitcast %"class.std::deque"* %7 to %"class.std::_Deque_base"*, !dbg !2208
  %11 = getelementptr inbounds %"class.std::_Deque_base", %"class.std::_Deque_base"* %10, i32 0, i32 0, !dbg !2208
  %12 = getelementptr inbounds %"struct.std::_Deque_base<float, std::allocator<float> >::_Deque_impl", %"struct.std::_Deque_base<float, std::allocator<float> >::_Deque_impl"* %11, i32 0, i32 3, !dbg !2209
  %13 = getelementptr inbounds %"struct.std::_Deque_iterator", %"struct.std::_Deque_iterator"* %12, i32 0, i32 3, !dbg !2210
  %14 = load float**, float*** %13, align 4, !dbg !2210
  %15 = getelementptr inbounds float*, float** %14, i32 1, !dbg !2211
  store float* %9, float** %15, align 4, !dbg !2212
  %16 = bitcast %"class.std::deque"* %7 to %"class.std::_Deque_base"*, !dbg !2213
  %17 = getelementptr inbounds %"class.std::_Deque_base", %"class.std::_Deque_base"* %16, i32 0, i32 0, !dbg !2213
  %18 = bitcast %"struct.std::_Deque_base<float, std::allocator<float> >::_Deque_impl"* %17 to %"class.std::allocator.0"*, !dbg !2215
  %19 = bitcast %"class.std::deque"* %7 to %"class.std::_Deque_base"*, !dbg !2216
  %20 = getelementptr inbounds %"class.std::_Deque_base", %"class.std::_Deque_base"* %19, i32 0, i32 0, !dbg !2216
  %21 = getelementptr inbounds %"struct.std::_Deque_base<float, std::allocator<float> >::_Deque_impl", %"struct.std::_Deque_base<float, std::allocator<float> >::_Deque_impl"* %20, i32 0, i32 3, !dbg !2217
  %22 = getelementptr inbounds %"struct.std::_Deque_iterator", %"struct.std::_Deque_iterator"* %21, i32 0, i32 0, !dbg !2218
  %23 = load float*, float** %22, align 4, !dbg !2218
  %24 = load float*, float** %4, align 4, !dbg !2219
  %25 = call dereferenceable(4) float* @_ZSt7forwardIRKfEOT_RNSt16remove_referenceIS2_E4typeE(float* dereferenceable(4) %24) #3, !dbg !2220
  invoke void @_ZNSt16allocator_traitsISaIfEE9constructIfJRKfEEEvRS0_PT_DpOT0_(%"class.std::allocator.0"* dereferenceable(1) %18, float* %23, float* dereferenceable(4) %25)
          to label %26 unwind label %45, !dbg !2221

; <label>:26:                                     ; preds = %2
  %27 = bitcast %"class.std::deque"* %7 to %"class.std::_Deque_base"*, !dbg !2222
  %28 = getelementptr inbounds %"class.std::_Deque_base", %"class.std::_Deque_base"* %27, i32 0, i32 0, !dbg !2222
  %29 = getelementptr inbounds %"struct.std::_Deque_base<float, std::allocator<float> >::_Deque_impl", %"struct.std::_Deque_base<float, std::allocator<float> >::_Deque_impl"* %28, i32 0, i32 3, !dbg !2223
  %30 = bitcast %"class.std::deque"* %7 to %"class.std::_Deque_base"*, !dbg !2224
  %31 = getelementptr inbounds %"class.std::_Deque_base", %"class.std::_Deque_base"* %30, i32 0, i32 0, !dbg !2224
  %32 = getelementptr inbounds %"struct.std::_Deque_base<float, std::allocator<float> >::_Deque_impl", %"struct.std::_Deque_base<float, std::allocator<float> >::_Deque_impl"* %31, i32 0, i32 3, !dbg !2225
  %33 = getelementptr inbounds %"struct.std::_Deque_iterator", %"struct.std::_Deque_iterator"* %32, i32 0, i32 3, !dbg !2226
  %34 = load float**, float*** %33, align 4, !dbg !2226
  %35 = getelementptr inbounds float*, float** %34, i32 1, !dbg !2227
  call void @_ZNSt15_Deque_iteratorIfRfPfE11_M_set_nodeEPS1_(%"struct.std::_Deque_iterator"* %29, float** %35) #3, !dbg !2228
  %36 = bitcast %"class.std::deque"* %7 to %"class.std::_Deque_base"*, !dbg !2229
  %37 = getelementptr inbounds %"class.std::_Deque_base", %"class.std::_Deque_base"* %36, i32 0, i32 0, !dbg !2229
  %38 = getelementptr inbounds %"struct.std::_Deque_base<float, std::allocator<float> >::_Deque_impl", %"struct.std::_Deque_base<float, std::allocator<float> >::_Deque_impl"* %37, i32 0, i32 3, !dbg !2230
  %39 = getelementptr inbounds %"struct.std::_Deque_iterator", %"struct.std::_Deque_iterator"* %38, i32 0, i32 1, !dbg !2231
  %40 = load float*, float** %39, align 4, !dbg !2231
  %41 = bitcast %"class.std::deque"* %7 to %"class.std::_Deque_base"*, !dbg !2232
  %42 = getelementptr inbounds %"class.std::_Deque_base", %"class.std::_Deque_base"* %41, i32 0, i32 0, !dbg !2232
  %43 = getelementptr inbounds %"struct.std::_Deque_base<float, std::allocator<float> >::_Deque_impl", %"struct.std::_Deque_base<float, std::allocator<float> >::_Deque_impl"* %42, i32 0, i32 3, !dbg !2233
  %44 = getelementptr inbounds %"struct.std::_Deque_iterator", %"struct.std::_Deque_iterator"* %43, i32 0, i32 0, !dbg !2234
  store float* %40, float** %44, align 4, !dbg !2235
  br label %65, !dbg !2236

; <label>:45:                                     ; preds = %2
  %46 = landingpad { i8*, i32 }
          catch i8* null, !dbg !2237
  %47 = extractvalue { i8*, i32 } %46, 0, !dbg !2237
  store i8* %47, i8** %5, align 4, !dbg !2237
  %48 = extractvalue { i8*, i32 } %46, 1, !dbg !2237
  store i32 %48, i32* %6, align 4, !dbg !2237
  br label %49, !dbg !2237

; <label>:49:                                     ; preds = %45
  %50 = load i8*, i8** %5, align 4, !dbg !2238
  %51 = call i8* @__cxa_begin_catch(i8* %50) #3, !dbg !2238
  %52 = bitcast %"class.std::deque"* %7 to %"class.std::_Deque_base"*, !dbg !2240
  %53 = bitcast %"class.std::deque"* %7 to %"class.std::_Deque_base"*, !dbg !2242
  %54 = getelementptr inbounds %"class.std::_Deque_base", %"class.std::_Deque_base"* %53, i32 0, i32 0, !dbg !2242
  %55 = getelementptr inbounds %"struct.std::_Deque_base<float, std::allocator<float> >::_Deque_impl", %"struct.std::_Deque_base<float, std::allocator<float> >::_Deque_impl"* %54, i32 0, i32 3, !dbg !2243
  %56 = getelementptr inbounds %"struct.std::_Deque_iterator", %"struct.std::_Deque_iterator"* %55, i32 0, i32 3, !dbg !2244
  %57 = load float**, float*** %56, align 4, !dbg !2244
  %58 = getelementptr inbounds float*, float** %57, i32 1, !dbg !2245
  %59 = load float*, float** %58, align 4, !dbg !2246
  call void @_ZNSt11_Deque_baseIfSaIfEE18_M_deallocate_nodeEPf(%"class.std::_Deque_base"* %52, float* %59) #3, !dbg !2240
  invoke void @__cxa_rethrow() #13
          to label %74 unwind label %60, !dbg !2247

; <label>:60:                                     ; preds = %49
  %61 = landingpad { i8*, i32 }
          cleanup, !dbg !2248
  %62 = extractvalue { i8*, i32 } %61, 0, !dbg !2248
  store i8* %62, i8** %5, align 4, !dbg !2248
  %63 = extractvalue { i8*, i32 } %61, 1, !dbg !2248
  store i32 %63, i32* %6, align 4, !dbg !2248
  invoke void @__cxa_end_catch()
          to label %64 unwind label %71, !dbg !2250

; <label>:64:                                     ; preds = %60
  br label %66, !dbg !2251

; <label>:65:                                     ; preds = %26
  ret void, !dbg !2252

; <label>:66:                                     ; preds = %64
  %67 = load i8*, i8** %5, align 4, !dbg !2254
  %68 = load i32, i32* %6, align 4, !dbg !2254
  %69 = insertvalue { i8*, i32 } undef, i8* %67, 0, !dbg !2254
  %70 = insertvalue { i8*, i32 } %69, i32 %68, 1, !dbg !2254
  resume { i8*, i32 } %70, !dbg !2254

; <label>:71:                                     ; preds = %60
  %72 = landingpad { i8*, i32 }
          catch i8* null, !dbg !2256
  %73 = extractvalue { i8*, i32 } %72, 0, !dbg !2256
  call void @__clang_call_terminate(i8* %73) #14, !dbg !2256
  unreachable, !dbg !2256

; <label>:74:                                     ; preds = %49
  unreachable
}

; Function Attrs: nounwind
define linkonce_odr void @_ZN9__gnu_cxx13new_allocatorIfE9constructIfJRKfEEEvPT_DpOT0_(%"class.__gnu_cxx::new_allocator.1"*, float*, float* dereferenceable(4)) #4 comdat align 2 !dbg !2258 !xidane.fname !2262 !xidane.function_declaration_type !2263 !xidane.function_declaration_filename !2264 {
  %4 = alloca %"class.__gnu_cxx::new_allocator.1"*, align 4
  %5 = alloca float*, align 4
  %6 = alloca float*, align 4
  store %"class.__gnu_cxx::new_allocator.1"* %0, %"class.__gnu_cxx::new_allocator.1"** %4, align 4
  call void @llvm.dbg.declare(metadata %"class.__gnu_cxx::new_allocator.1"** %4, metadata !2265, metadata !1650), !dbg !2267
  store float* %1, float** %5, align 4
  call void @llvm.dbg.declare(metadata float** %5, metadata !2268, metadata !1650), !dbg !2269
  store float* %2, float** %6, align 4
  call void @llvm.dbg.declare(metadata float** %6, metadata !2270, metadata !1650), !dbg !2271
  %7 = load %"class.__gnu_cxx::new_allocator.1"*, %"class.__gnu_cxx::new_allocator.1"** %4, align 4
  %8 = load float*, float** %5, align 4, !dbg !2272
  %9 = bitcast float* %8 to i8*, !dbg !2272
  %10 = bitcast i8* %9 to float*, !dbg !2273
  %11 = load float*, float** %6, align 4, !dbg !2274
  %12 = call dereferenceable(4) float* @_ZSt7forwardIRKfEOT_RNSt16remove_referenceIS2_E4typeE(float* dereferenceable(4) %11) #3, !dbg !2275
  %13 = load float, float* %12, align 4, !dbg !2275
  store float %13, float* %10, align 4, !dbg !2273
  ret void, !dbg !2276
}

; Function Attrs: nounwind
define linkonce_odr dereferenceable(4) float* @_ZSt7forwardIRKfEOT_RNSt16remove_referenceIS2_E4typeE(float* dereferenceable(4)) #4 comdat !dbg !2277 !xidane.fname !2286 !xidane.function_declaration_type !2287 !xidane.function_declaration_filename !2288 {
  %2 = alloca float*, align 4
  store float* %0, float** %2, align 4
  call void @llvm.dbg.declare(metadata float** %2, metadata !2289, metadata !1650), !dbg !2290
  %3 = load float*, float** %2, align 4, !dbg !2291
  ret float* %3, !dbg !2292
}

define linkonce_odr void @_ZNSt5dequeIfSaIfEE22_M_reserve_map_at_backEj(%"class.std::deque"*, i32) #0 comdat align 2 !dbg !2293 !xidane.fname !2294 !xidane.function_declaration_type !2295 !xidane.function_declaration_filename !2137 {
  %3 = alloca %"class.std::deque"*, align 4
  %4 = alloca i32, align 4
  store %"class.std::deque"* %0, %"class.std::deque"** %3, align 4
  call void @llvm.dbg.declare(metadata %"class.std::deque"** %3, metadata !2296, metadata !1650), !dbg !2297
  store i32 %1, i32* %4, align 4
  call void @llvm.dbg.declare(metadata i32* %4, metadata !2298, metadata !1650), !dbg !2299
  %5 = load %"class.std::deque"*, %"class.std::deque"** %3, align 4
  %6 = load i32, i32* %4, align 4, !dbg !2300
  %7 = add i32 %6, 1, !dbg !2302
  %8 = bitcast %"class.std::deque"* %5 to %"class.std::_Deque_base"*, !dbg !2303
  %9 = getelementptr inbounds %"class.std::_Deque_base", %"class.std::_Deque_base"* %8, i32 0, i32 0, !dbg !2303
  %10 = getelementptr inbounds %"struct.std::_Deque_base<float, std::allocator<float> >::_Deque_impl", %"struct.std::_Deque_base<float, std::allocator<float> >::_Deque_impl"* %9, i32 0, i32 1, !dbg !2304
  %11 = load i32, i32* %10, align 4, !dbg !2304
  %12 = bitcast %"class.std::deque"* %5 to %"class.std::_Deque_base"*, !dbg !2305
  %13 = getelementptr inbounds %"class.std::_Deque_base", %"class.std::_Deque_base"* %12, i32 0, i32 0, !dbg !2305
  %14 = getelementptr inbounds %"struct.std::_Deque_base<float, std::allocator<float> >::_Deque_impl", %"struct.std::_Deque_base<float, std::allocator<float> >::_Deque_impl"* %13, i32 0, i32 3, !dbg !2306
  %15 = getelementptr inbounds %"struct.std::_Deque_iterator", %"struct.std::_Deque_iterator"* %14, i32 0, i32 3, !dbg !2307
  %16 = load float**, float*** %15, align 4, !dbg !2307
  %17 = bitcast %"class.std::deque"* %5 to %"class.std::_Deque_base"*, !dbg !2308
  %18 = getelementptr inbounds %"class.std::_Deque_base", %"class.std::_Deque_base"* %17, i32 0, i32 0, !dbg !2308
  %19 = getelementptr inbounds %"struct.std::_Deque_base<float, std::allocator<float> >::_Deque_impl", %"struct.std::_Deque_base<float, std::allocator<float> >::_Deque_impl"* %18, i32 0, i32 0, !dbg !2309
  %20 = load float**, float*** %19, align 4, !dbg !2309
  %21 = ptrtoint float** %16 to i32, !dbg !2310
  %22 = ptrtoint float** %20 to i32, !dbg !2310
  %23 = sub i32 %21, %22, !dbg !2310
  %24 = sdiv exact i32 %23, 4, !dbg !2310
  %25 = sub i32 %11, %24, !dbg !2311
  %26 = icmp ugt i32 %7, %25, !dbg !2312
  br i1 %26, label %27, label %29, !dbg !2313

; <label>:27:                                     ; preds = %2
  %28 = load i32, i32* %4, align 4, !dbg !2314
  call void @_ZNSt5dequeIfSaIfEE17_M_reallocate_mapEjb(%"class.std::deque"* %5, i32 %28, i1 zeroext false), !dbg !2315
  br label %29, !dbg !2315

; <label>:29:                                     ; preds = %27, %2
  ret void, !dbg !2316
}

define linkonce_odr float* @_ZNSt11_Deque_baseIfSaIfEE16_M_allocate_nodeEv(%"class.std::_Deque_base"*) #0 comdat align 2 !dbg !2317 !xidane.fname !2318 !xidane.function_declaration_type !2319 !xidane.function_declaration_filename !2137 {
  %2 = alloca %"class.std::_Deque_base"*, align 4
  store %"class.std::_Deque_base"* %0, %"class.std::_Deque_base"** %2, align 4
  call void @llvm.dbg.declare(metadata %"class.std::_Deque_base"** %2, metadata !2320, metadata !1650), !dbg !2322
  %3 = load %"class.std::_Deque_base"*, %"class.std::_Deque_base"** %2, align 4
  %4 = getelementptr inbounds %"class.std::_Deque_base", %"class.std::_Deque_base"* %3, i32 0, i32 0, !dbg !2323
  %5 = bitcast %"struct.std::_Deque_base<float, std::allocator<float> >::_Deque_impl"* %4 to %"class.std::allocator.0"*, !dbg !2323
  %6 = call i32 @_ZSt16__deque_buf_sizej(i32 4), !dbg !2324
  %7 = call float* @_ZNSt16allocator_traitsISaIfEE8allocateERS0_j(%"class.std::allocator.0"* dereferenceable(1) %5, i32 %6), !dbg !2325
  ret float* %7, !dbg !2327
}

; Function Attrs: nounwind
define linkonce_odr void @_ZNSt15_Deque_iteratorIfRfPfE11_M_set_nodeEPS1_(%"struct.std::_Deque_iterator"*, float**) #4 comdat align 2 !dbg !2328 !xidane.fname !2329 !xidane.function_declaration_type !2330 !xidane.function_declaration_filename !2137 {
  %3 = alloca %"struct.std::_Deque_iterator"*, align 4
  %4 = alloca float**, align 4
  store %"struct.std::_Deque_iterator"* %0, %"struct.std::_Deque_iterator"** %3, align 4
  call void @llvm.dbg.declare(metadata %"struct.std::_Deque_iterator"** %3, metadata !2331, metadata !1650), !dbg !2333
  store float** %1, float*** %4, align 4
  call void @llvm.dbg.declare(metadata float*** %4, metadata !2334, metadata !1650), !dbg !2335
  %5 = load %"struct.std::_Deque_iterator"*, %"struct.std::_Deque_iterator"** %3, align 4
  %6 = load float**, float*** %4, align 4, !dbg !2336
  %7 = getelementptr inbounds %"struct.std::_Deque_iterator", %"struct.std::_Deque_iterator"* %5, i32 0, i32 3, !dbg !2337
  store float** %6, float*** %7, align 4, !dbg !2338
  %8 = load float**, float*** %4, align 4, !dbg !2339
  %9 = load float*, float** %8, align 4, !dbg !2340
  %10 = getelementptr inbounds %"struct.std::_Deque_iterator", %"struct.std::_Deque_iterator"* %5, i32 0, i32 1, !dbg !2341
  store float* %9, float** %10, align 4, !dbg !2342
  %11 = getelementptr inbounds %"struct.std::_Deque_iterator", %"struct.std::_Deque_iterator"* %5, i32 0, i32 1, !dbg !2343
  %12 = load float*, float** %11, align 4, !dbg !2343
  %13 = call i32 @_ZNSt15_Deque_iteratorIfRfPfE14_S_buffer_sizeEv() #3, !dbg !2344
  %14 = getelementptr inbounds float, float* %12, i32 %13, !dbg !2345
  %15 = getelementptr inbounds %"struct.std::_Deque_iterator", %"struct.std::_Deque_iterator"* %5, i32 0, i32 2, !dbg !2346
  store float* %14, float** %15, align 4, !dbg !2347
  ret void, !dbg !2348
}

declare i8* @__cxa_begin_catch(i8*)

; Function Attrs: nounwind
define linkonce_odr void @_ZNSt11_Deque_baseIfSaIfEE18_M_deallocate_nodeEPf(%"class.std::_Deque_base"*, float*) #4 comdat align 2 personality i8* bitcast (i32 (...)* @__gxx_personality_v0 to i8*) !dbg !2349 !xidane.fname !2350 !xidane.function_declaration_type !2351 !xidane.function_declaration_filename !2137 {
  %3 = alloca %"class.std::_Deque_base"*, align 4
  %4 = alloca float*, align 4
  store %"class.std::_Deque_base"* %0, %"class.std::_Deque_base"** %3, align 4
  call void @llvm.dbg.declare(metadata %"class.std::_Deque_base"** %3, metadata !2352, metadata !1650), !dbg !2353
  store float* %1, float** %4, align 4
  call void @llvm.dbg.declare(metadata float** %4, metadata !2354, metadata !1650), !dbg !2355
  %5 = load %"class.std::_Deque_base"*, %"class.std::_Deque_base"** %3, align 4
  %6 = getelementptr inbounds %"class.std::_Deque_base", %"class.std::_Deque_base"* %5, i32 0, i32 0, !dbg !2356
  %7 = bitcast %"struct.std::_Deque_base<float, std::allocator<float> >::_Deque_impl"* %6 to %"class.std::allocator.0"*, !dbg !2356
  %8 = load float*, float** %4, align 4, !dbg !2357
  %9 = invoke i32 @_ZSt16__deque_buf_sizej(i32 4)
          to label %10 unwind label %12, !dbg !2358

; <label>:10:                                     ; preds = %2
  invoke void @_ZNSt16allocator_traitsISaIfEE10deallocateERS0_Pfj(%"class.std::allocator.0"* dereferenceable(1) %7, float* %8, i32 %9)
          to label %11 unwind label %12, !dbg !2359

; <label>:11:                                     ; preds = %10
  ret void, !dbg !2361

; <label>:12:                                     ; preds = %10, %2
  %13 = landingpad { i8*, i32 }
          catch i8* null, !dbg !2362
  %14 = extractvalue { i8*, i32 } %13, 0, !dbg !2362
  call void @__clang_call_terminate(i8* %14) #14, !dbg !2362
  unreachable, !dbg !2362
}

declare void @__cxa_rethrow()

declare void @__cxa_end_catch()

; Function Attrs: noinline noreturn nounwind
define linkonce_odr hidden void @__clang_call_terminate(i8*) #6 comdat {
  %2 = call i8* @__cxa_begin_catch(i8* %0) #3
  call void @_ZSt9terminatev() #14
  unreachable
}

declare void @_ZSt9terminatev()

define linkonce_odr void @_ZNSt5dequeIfSaIfEE17_M_reallocate_mapEjb(%"class.std::deque"*, i32, i1 zeroext) #0 comdat align 2 !dbg !2364 !xidane.fname !2365 !xidane.function_declaration_type !2366 !xidane.function_declaration_filename !2137 {
  %4 = alloca %"class.std::deque"*, align 4
  %5 = alloca i32, align 4
  %6 = alloca i8, align 1
  %7 = alloca i32, align 4
  %8 = alloca i32, align 4
  %9 = alloca float**, align 4
  %10 = alloca i32, align 4
  %11 = alloca float**, align 4
  store %"class.std::deque"* %0, %"class.std::deque"** %4, align 4
  call void @llvm.dbg.declare(metadata %"class.std::deque"** %4, metadata !2367, metadata !1650), !dbg !2368
  store i32 %1, i32* %5, align 4
  call void @llvm.dbg.declare(metadata i32* %5, metadata !2369, metadata !1650), !dbg !2370
  %12 = zext i1 %2 to i8
  store i8 %12, i8* %6, align 1
  call void @llvm.dbg.declare(metadata i8* %6, metadata !2371, metadata !1650), !dbg !2372
  %13 = load %"class.std::deque"*, %"class.std::deque"** %4, align 4
  call void @llvm.dbg.declare(metadata i32* %7, metadata !2373, metadata !1650), !dbg !2375
  %14 = bitcast %"class.std::deque"* %13 to %"class.std::_Deque_base"*, !dbg !2376
  %15 = getelementptr inbounds %"class.std::_Deque_base", %"class.std::_Deque_base"* %14, i32 0, i32 0, !dbg !2376
  %16 = getelementptr inbounds %"struct.std::_Deque_base<float, std::allocator<float> >::_Deque_impl", %"struct.std::_Deque_base<float, std::allocator<float> >::_Deque_impl"* %15, i32 0, i32 3, !dbg !2377
  %17 = getelementptr inbounds %"struct.std::_Deque_iterator", %"struct.std::_Deque_iterator"* %16, i32 0, i32 3, !dbg !2378
  %18 = load float**, float*** %17, align 4, !dbg !2378
  %19 = bitcast %"class.std::deque"* %13 to %"class.std::_Deque_base"*, !dbg !2379
  %20 = getelementptr inbounds %"class.std::_Deque_base", %"class.std::_Deque_base"* %19, i32 0, i32 0, !dbg !2379
  %21 = getelementptr inbounds %"struct.std::_Deque_base<float, std::allocator<float> >::_Deque_impl", %"struct.std::_Deque_base<float, std::allocator<float> >::_Deque_impl"* %20, i32 0, i32 2, !dbg !2380
  %22 = getelementptr inbounds %"struct.std::_Deque_iterator", %"struct.std::_Deque_iterator"* %21, i32 0, i32 3, !dbg !2381
  %23 = load float**, float*** %22, align 4, !dbg !2381
  %24 = ptrtoint float** %18 to i32, !dbg !2382
  %25 = ptrtoint float** %23 to i32, !dbg !2382
  %26 = sub i32 %24, %25, !dbg !2382
  %27 = sdiv exact i32 %26, 4, !dbg !2382
  %28 = add nsw i32 %27, 1, !dbg !2383
  store i32 %28, i32* %7, align 4, !dbg !2375
  call void @llvm.dbg.declare(metadata i32* %8, metadata !2384, metadata !1650), !dbg !2385
  %29 = load i32, i32* %7, align 4, !dbg !2386
  %30 = load i32, i32* %5, align 4, !dbg !2387
  %31 = add i32 %29, %30, !dbg !2388
  store i32 %31, i32* %8, align 4, !dbg !2385
  call void @llvm.dbg.declare(metadata float*** %9, metadata !2389, metadata !1650), !dbg !2391
  %32 = bitcast %"class.std::deque"* %13 to %"class.std::_Deque_base"*, !dbg !2392
  %33 = getelementptr inbounds %"class.std::_Deque_base", %"class.std::_Deque_base"* %32, i32 0, i32 0, !dbg !2392
  %34 = getelementptr inbounds %"struct.std::_Deque_base<float, std::allocator<float> >::_Deque_impl", %"struct.std::_Deque_base<float, std::allocator<float> >::_Deque_impl"* %33, i32 0, i32 1, !dbg !2394
  %35 = load i32, i32* %34, align 4, !dbg !2394
  %36 = load i32, i32* %8, align 4, !dbg !2395
  %37 = mul i32 2, %36, !dbg !2396
  %38 = icmp ugt i32 %35, %37, !dbg !2397
  br i1 %38, label %39, label %98, !dbg !2398

; <label>:39:                                     ; preds = %3
  %40 = bitcast %"class.std::deque"* %13 to %"class.std::_Deque_base"*, !dbg !2399
  %41 = getelementptr inbounds %"class.std::_Deque_base", %"class.std::_Deque_base"* %40, i32 0, i32 0, !dbg !2399
  %42 = getelementptr inbounds %"struct.std::_Deque_base<float, std::allocator<float> >::_Deque_impl", %"struct.std::_Deque_base<float, std::allocator<float> >::_Deque_impl"* %41, i32 0, i32 0, !dbg !2401
  %43 = load float**, float*** %42, align 4, !dbg !2401
  %44 = bitcast %"class.std::deque"* %13 to %"class.std::_Deque_base"*, !dbg !2402
  %45 = getelementptr inbounds %"class.std::_Deque_base", %"class.std::_Deque_base"* %44, i32 0, i32 0, !dbg !2402
  %46 = getelementptr inbounds %"struct.std::_Deque_base<float, std::allocator<float> >::_Deque_impl", %"struct.std::_Deque_base<float, std::allocator<float> >::_Deque_impl"* %45, i32 0, i32 1, !dbg !2403
  %47 = load i32, i32* %46, align 4, !dbg !2403
  %48 = load i32, i32* %8, align 4, !dbg !2404
  %49 = sub i32 %47, %48, !dbg !2405
  %50 = udiv i32 %49, 2, !dbg !2406
  %51 = getelementptr inbounds float*, float** %43, i32 %50, !dbg !2407
  %52 = load i8, i8* %6, align 1, !dbg !2408
  %53 = trunc i8 %52 to i1, !dbg !2408
  br i1 %53, label %54, label %56, !dbg !2408

; <label>:54:                                     ; preds = %39
  %55 = load i32, i32* %5, align 4, !dbg !2409
  br label %57, !dbg !2411

; <label>:56:                                     ; preds = %39
  br label %57, !dbg !2412

; <label>:57:                                     ; preds = %56, %54
  %58 = phi i32 [ %55, %54 ], [ 0, %56 ], !dbg !2414
  %59 = getelementptr inbounds float*, float** %51, i32 %58, !dbg !2416
  store float** %59, float*** %9, align 4, !dbg !2417
  %60 = load float**, float*** %9, align 4, !dbg !2418
  %61 = bitcast %"class.std::deque"* %13 to %"class.std::_Deque_base"*, !dbg !2420
  %62 = getelementptr inbounds %"class.std::_Deque_base", %"class.std::_Deque_base"* %61, i32 0, i32 0, !dbg !2420
  %63 = getelementptr inbounds %"struct.std::_Deque_base<float, std::allocator<float> >::_Deque_impl", %"struct.std::_Deque_base<float, std::allocator<float> >::_Deque_impl"* %62, i32 0, i32 2, !dbg !2421
  %64 = getelementptr inbounds %"struct.std::_Deque_iterator", %"struct.std::_Deque_iterator"* %63, i32 0, i32 3, !dbg !2422
  %65 = load float**, float*** %64, align 4, !dbg !2422
  %66 = icmp ult float** %60, %65, !dbg !2423
  br i1 %66, label %67, label %81, !dbg !2424

; <label>:67:                                     ; preds = %57
  %68 = bitcast %"class.std::deque"* %13 to %"class.std::_Deque_base"*, !dbg !2425
  %69 = getelementptr inbounds %"class.std::_Deque_base", %"class.std::_Deque_base"* %68, i32 0, i32 0, !dbg !2425
  %70 = getelementptr inbounds %"struct.std::_Deque_base<float, std::allocator<float> >::_Deque_impl", %"struct.std::_Deque_base<float, std::allocator<float> >::_Deque_impl"* %69, i32 0, i32 2, !dbg !2426
  %71 = getelementptr inbounds %"struct.std::_Deque_iterator", %"struct.std::_Deque_iterator"* %70, i32 0, i32 3, !dbg !2427
  %72 = load float**, float*** %71, align 4, !dbg !2427
  %73 = bitcast %"class.std::deque"* %13 to %"class.std::_Deque_base"*, !dbg !2428
  %74 = getelementptr inbounds %"class.std::_Deque_base", %"class.std::_Deque_base"* %73, i32 0, i32 0, !dbg !2428
  %75 = getelementptr inbounds %"struct.std::_Deque_base<float, std::allocator<float> >::_Deque_impl", %"struct.std::_Deque_base<float, std::allocator<float> >::_Deque_impl"* %74, i32 0, i32 3, !dbg !2429
  %76 = getelementptr inbounds %"struct.std::_Deque_iterator", %"struct.std::_Deque_iterator"* %75, i32 0, i32 3, !dbg !2430
  %77 = load float**, float*** %76, align 4, !dbg !2430
  %78 = getelementptr inbounds float*, float** %77, i32 1, !dbg !2431
  %79 = load float**, float*** %9, align 4, !dbg !2432
  %80 = call float** @_ZSt4copyIPPfS1_ET0_T_S3_S2_(float** %72, float** %78, float** %79), !dbg !2433
  br label %97, !dbg !2433

; <label>:81:                                     ; preds = %57
  %82 = bitcast %"class.std::deque"* %13 to %"class.std::_Deque_base"*, !dbg !2434
  %83 = getelementptr inbounds %"class.std::_Deque_base", %"class.std::_Deque_base"* %82, i32 0, i32 0, !dbg !2434
  %84 = getelementptr inbounds %"struct.std::_Deque_base<float, std::allocator<float> >::_Deque_impl", %"struct.std::_Deque_base<float, std::allocator<float> >::_Deque_impl"* %83, i32 0, i32 2, !dbg !2435
  %85 = getelementptr inbounds %"struct.std::_Deque_iterator", %"struct.std::_Deque_iterator"* %84, i32 0, i32 3, !dbg !2436
  %86 = load float**, float*** %85, align 4, !dbg !2436
  %87 = bitcast %"class.std::deque"* %13 to %"class.std::_Deque_base"*, !dbg !2437
  %88 = getelementptr inbounds %"class.std::_Deque_base", %"class.std::_Deque_base"* %87, i32 0, i32 0, !dbg !2437
  %89 = getelementptr inbounds %"struct.std::_Deque_base<float, std::allocator<float> >::_Deque_impl", %"struct.std::_Deque_base<float, std::allocator<float> >::_Deque_impl"* %88, i32 0, i32 3, !dbg !2438
  %90 = getelementptr inbounds %"struct.std::_Deque_iterator", %"struct.std::_Deque_iterator"* %89, i32 0, i32 3, !dbg !2439
  %91 = load float**, float*** %90, align 4, !dbg !2439
  %92 = getelementptr inbounds float*, float** %91, i32 1, !dbg !2440
  %93 = load float**, float*** %9, align 4, !dbg !2441
  %94 = load i32, i32* %7, align 4, !dbg !2442
  %95 = getelementptr inbounds float*, float** %93, i32 %94, !dbg !2443
  %96 = call float** @_ZSt13copy_backwardIPPfS1_ET0_T_S3_S2_(float** %86, float** %92, float** %95), !dbg !2444
  br label %97

; <label>:97:                                     ; preds = %81, %67
  br label %157, !dbg !2445

; <label>:98:                                     ; preds = %3
  call void @llvm.dbg.declare(metadata i32* %10, metadata !2446, metadata !1650), !dbg !2448
  %99 = bitcast %"class.std::deque"* %13 to %"class.std::_Deque_base"*, !dbg !2449
  %100 = getelementptr inbounds %"class.std::_Deque_base", %"class.std::_Deque_base"* %99, i32 0, i32 0, !dbg !2449
  %101 = getelementptr inbounds %"struct.std::_Deque_base<float, std::allocator<float> >::_Deque_impl", %"struct.std::_Deque_base<float, std::allocator<float> >::_Deque_impl"* %100, i32 0, i32 1, !dbg !2450
  %102 = load i32, i32* %101, align 4, !dbg !2450
  %103 = bitcast %"class.std::deque"* %13 to %"class.std::_Deque_base"*, !dbg !2451
  %104 = getelementptr inbounds %"class.std::_Deque_base", %"class.std::_Deque_base"* %103, i32 0, i32 0, !dbg !2451
  %105 = getelementptr inbounds %"struct.std::_Deque_base<float, std::allocator<float> >::_Deque_impl", %"struct.std::_Deque_base<float, std::allocator<float> >::_Deque_impl"* %104, i32 0, i32 1, !dbg !2452
  %106 = call dereferenceable(4) i32* @_ZSt3maxIjERKT_S2_S2_(i32* dereferenceable(4) %105, i32* dereferenceable(4) %5), !dbg !2453
  %107 = load i32, i32* %106, align 4, !dbg !2453
  %108 = add i32 %102, %107, !dbg !2454
  %109 = add i32 %108, 2, !dbg !2455
  store i32 %109, i32* %10, align 4, !dbg !2448
  call void @llvm.dbg.declare(metadata float*** %11, metadata !2456, metadata !1650), !dbg !2457
  %110 = bitcast %"class.std::deque"* %13 to %"class.std::_Deque_base"*, !dbg !2458
  %111 = load i32, i32* %10, align 4, !dbg !2459
  %112 = call float** @_ZNSt11_Deque_baseIfSaIfEE15_M_allocate_mapEj(%"class.std::_Deque_base"* %110, i32 %111), !dbg !2458
  store float** %112, float*** %11, align 4, !dbg !2457
  %113 = load float**, float*** %11, align 4, !dbg !2460
  %114 = load i32, i32* %10, align 4, !dbg !2461
  %115 = load i32, i32* %8, align 4, !dbg !2462
  %116 = sub i32 %114, %115, !dbg !2463
  %117 = udiv i32 %116, 2, !dbg !2464
  %118 = getelementptr inbounds float*, float** %113, i32 %117, !dbg !2465
  %119 = load i8, i8* %6, align 1, !dbg !2466
  %120 = trunc i8 %119 to i1, !dbg !2466
  br i1 %120, label %121, label %123, !dbg !2466

; <label>:121:                                    ; preds = %98
  %122 = load i32, i32* %5, align 4, !dbg !2467
  br label %124, !dbg !2469

; <label>:123:                                    ; preds = %98
  br label %124, !dbg !2470

; <label>:124:                                    ; preds = %123, %121
  %125 = phi i32 [ %122, %121 ], [ 0, %123 ], !dbg !2472
  %126 = getelementptr inbounds float*, float** %118, i32 %125, !dbg !2474
  store float** %126, float*** %9, align 4, !dbg !2475
  %127 = bitcast %"class.std::deque"* %13 to %"class.std::_Deque_base"*, !dbg !2476
  %128 = getelementptr inbounds %"class.std::_Deque_base", %"class.std::_Deque_base"* %127, i32 0, i32 0, !dbg !2476
  %129 = getelementptr inbounds %"struct.std::_Deque_base<float, std::allocator<float> >::_Deque_impl", %"struct.std::_Deque_base<float, std::allocator<float> >::_Deque_impl"* %128, i32 0, i32 2, !dbg !2477
  %130 = getelementptr inbounds %"struct.std::_Deque_iterator", %"struct.std::_Deque_iterator"* %129, i32 0, i32 3, !dbg !2478
  %131 = load float**, float*** %130, align 4, !dbg !2478
  %132 = bitcast %"class.std::deque"* %13 to %"class.std::_Deque_base"*, !dbg !2479
  %133 = getelementptr inbounds %"class.std::_Deque_base", %"class.std::_Deque_base"* %132, i32 0, i32 0, !dbg !2479
  %134 = getelementptr inbounds %"struct.std::_Deque_base<float, std::allocator<float> >::_Deque_impl", %"struct.std::_Deque_base<float, std::allocator<float> >::_Deque_impl"* %133, i32 0, i32 3, !dbg !2480
  %135 = getelementptr inbounds %"struct.std::_Deque_iterator", %"struct.std::_Deque_iterator"* %134, i32 0, i32 3, !dbg !2481
  %136 = load float**, float*** %135, align 4, !dbg !2481
  %137 = getelementptr inbounds float*, float** %136, i32 1, !dbg !2482
  %138 = load float**, float*** %9, align 4, !dbg !2483
  %139 = call float** @_ZSt4copyIPPfS1_ET0_T_S3_S2_(float** %131, float** %137, float** %138), !dbg !2484
  %140 = bitcast %"class.std::deque"* %13 to %"class.std::_Deque_base"*, !dbg !2485
  %141 = bitcast %"class.std::deque"* %13 to %"class.std::_Deque_base"*, !dbg !2486
  %142 = getelementptr inbounds %"class.std::_Deque_base", %"class.std::_Deque_base"* %141, i32 0, i32 0, !dbg !2486
  %143 = getelementptr inbounds %"struct.std::_Deque_base<float, std::allocator<float> >::_Deque_impl", %"struct.std::_Deque_base<float, std::allocator<float> >::_Deque_impl"* %142, i32 0, i32 0, !dbg !2487
  %144 = load float**, float*** %143, align 4, !dbg !2487
  %145 = bitcast %"class.std::deque"* %13 to %"class.std::_Deque_base"*, !dbg !2488
  %146 = getelementptr inbounds %"class.std::_Deque_base", %"class.std::_Deque_base"* %145, i32 0, i32 0, !dbg !2488
  %147 = getelementptr inbounds %"struct.std::_Deque_base<float, std::allocator<float> >::_Deque_impl", %"struct.std::_Deque_base<float, std::allocator<float> >::_Deque_impl"* %146, i32 0, i32 1, !dbg !2489
  %148 = load i32, i32* %147, align 4, !dbg !2489
  call void @_ZNSt11_Deque_baseIfSaIfEE17_M_deallocate_mapEPPfj(%"class.std::_Deque_base"* %140, float** %144, i32 %148) #3, !dbg !2485
  %149 = load float**, float*** %11, align 4, !dbg !2490
  %150 = bitcast %"class.std::deque"* %13 to %"class.std::_Deque_base"*, !dbg !2491
  %151 = getelementptr inbounds %"class.std::_Deque_base", %"class.std::_Deque_base"* %150, i32 0, i32 0, !dbg !2491
  %152 = getelementptr inbounds %"struct.std::_Deque_base<float, std::allocator<float> >::_Deque_impl", %"struct.std::_Deque_base<float, std::allocator<float> >::_Deque_impl"* %151, i32 0, i32 0, !dbg !2492
  store float** %149, float*** %152, align 4, !dbg !2493
  %153 = load i32, i32* %10, align 4, !dbg !2494
  %154 = bitcast %"class.std::deque"* %13 to %"class.std::_Deque_base"*, !dbg !2495
  %155 = getelementptr inbounds %"class.std::_Deque_base", %"class.std::_Deque_base"* %154, i32 0, i32 0, !dbg !2495
  %156 = getelementptr inbounds %"struct.std::_Deque_base<float, std::allocator<float> >::_Deque_impl", %"struct.std::_Deque_base<float, std::allocator<float> >::_Deque_impl"* %155, i32 0, i32 1, !dbg !2496
  store i32 %153, i32* %156, align 4, !dbg !2497
  br label %157

; <label>:157:                                    ; preds = %124, %97
  %158 = bitcast %"class.std::deque"* %13 to %"class.std::_Deque_base"*, !dbg !2498
  %159 = getelementptr inbounds %"class.std::_Deque_base", %"class.std::_Deque_base"* %158, i32 0, i32 0, !dbg !2498
  %160 = getelementptr inbounds %"struct.std::_Deque_base<float, std::allocator<float> >::_Deque_impl", %"struct.std::_Deque_base<float, std::allocator<float> >::_Deque_impl"* %159, i32 0, i32 2, !dbg !2499
  %161 = load float**, float*** %9, align 4, !dbg !2500
  call void @_ZNSt15_Deque_iteratorIfRfPfE11_M_set_nodeEPS1_(%"struct.std::_Deque_iterator"* %160, float** %161) #3, !dbg !2501
  %162 = bitcast %"class.std::deque"* %13 to %"class.std::_Deque_base"*, !dbg !2502
  %163 = getelementptr inbounds %"class.std::_Deque_base", %"class.std::_Deque_base"* %162, i32 0, i32 0, !dbg !2502
  %164 = getelementptr inbounds %"struct.std::_Deque_base<float, std::allocator<float> >::_Deque_impl", %"struct.std::_Deque_base<float, std::allocator<float> >::_Deque_impl"* %163, i32 0, i32 3, !dbg !2503
  %165 = load float**, float*** %9, align 4, !dbg !2504
  %166 = load i32, i32* %7, align 4, !dbg !2505
  %167 = getelementptr inbounds float*, float** %165, i32 %166, !dbg !2506
  %168 = getelementptr inbounds float*, float** %167, i32 -1, !dbg !2507
  call void @_ZNSt15_Deque_iteratorIfRfPfE11_M_set_nodeEPS1_(%"struct.std::_Deque_iterator"* %164, float** %168) #3, !dbg !2508
  ret void, !dbg !2509
}

; Function Attrs: inlinehint
define linkonce_odr float** @_ZSt4copyIPPfS1_ET0_T_S3_S2_(float**, float**, float**) #7 comdat !dbg !2510 !xidane.fname !2517 !xidane.function_declaration_type !2518 !xidane.function_declaration_filename !2519 {
  %4 = alloca float**, align 4
  %5 = alloca float**, align 4
  %6 = alloca float**, align 4
  store float** %0, float*** %4, align 4
  call void @llvm.dbg.declare(metadata float*** %4, metadata !2520, metadata !1650), !dbg !2521
  store float** %1, float*** %5, align 4
  call void @llvm.dbg.declare(metadata float*** %5, metadata !2522, metadata !1650), !dbg !2523
  store float** %2, float*** %6, align 4
  call void @llvm.dbg.declare(metadata float*** %6, metadata !2524, metadata !1650), !dbg !2525
  %7 = load float**, float*** %4, align 4, !dbg !2526
  %8 = call float** @_ZSt12__miter_baseIPPfET_S2_(float** %7), !dbg !2527
  %9 = load float**, float*** %5, align 4, !dbg !2528
  %10 = call float** @_ZSt12__miter_baseIPPfET_S2_(float** %9), !dbg !2529
  %11 = load float**, float*** %6, align 4, !dbg !2531
  %12 = call float** @_ZSt14__copy_move_a2ILb0EPPfS1_ET1_T0_S3_S2_(float** %8, float** %10, float** %11), !dbg !2532
  ret float** %12, !dbg !2533
}

; Function Attrs: inlinehint
define linkonce_odr float** @_ZSt13copy_backwardIPPfS1_ET0_T_S3_S2_(float**, float**, float**) #7 comdat !dbg !2534 !xidane.fname !2538 !xidane.function_declaration_type !2518 !xidane.function_declaration_filename !2519 {
  %4 = alloca float**, align 4
  %5 = alloca float**, align 4
  %6 = alloca float**, align 4
  store float** %0, float*** %4, align 4
  call void @llvm.dbg.declare(metadata float*** %4, metadata !2539, metadata !1650), !dbg !2540
  store float** %1, float*** %5, align 4
  call void @llvm.dbg.declare(metadata float*** %5, metadata !2541, metadata !1650), !dbg !2542
  store float** %2, float*** %6, align 4
  call void @llvm.dbg.declare(metadata float*** %6, metadata !2543, metadata !1650), !dbg !2544
  %7 = load float**, float*** %4, align 4, !dbg !2545
  %8 = call float** @_ZSt12__miter_baseIPPfET_S2_(float** %7), !dbg !2546
  %9 = load float**, float*** %5, align 4, !dbg !2547
  %10 = call float** @_ZSt12__miter_baseIPPfET_S2_(float** %9), !dbg !2548
  %11 = load float**, float*** %6, align 4, !dbg !2550
  %12 = call float** @_ZSt23__copy_move_backward_a2ILb0EPPfS1_ET1_T0_S3_S2_(float** %8, float** %10, float** %11), !dbg !2551
  ret float** %12, !dbg !2552
}

; Function Attrs: inlinehint nounwind
define linkonce_odr dereferenceable(4) i32* @_ZSt3maxIjERKT_S2_S2_(i32* dereferenceable(4), i32* dereferenceable(4)) #8 comdat !dbg !2553 !xidane.fname !2560 !xidane.function_declaration_type !2561 !xidane.function_declaration_filename !2519 {
  %3 = alloca i32*, align 4
  %4 = alloca i32*, align 4
  %5 = alloca i32*, align 4
  store i32* %0, i32** %4, align 4
  call void @llvm.dbg.declare(metadata i32** %4, metadata !2562, metadata !1650), !dbg !2563
  store i32* %1, i32** %5, align 4
  call void @llvm.dbg.declare(metadata i32** %5, metadata !2564, metadata !1650), !dbg !2565
  %6 = load i32*, i32** %4, align 4, !dbg !2566
  %7 = load i32, i32* %6, align 4, !dbg !2566
  %8 = load i32*, i32** %5, align 4, !dbg !2568
  %9 = load i32, i32* %8, align 4, !dbg !2568
  %10 = icmp ult i32 %7, %9, !dbg !2569
  br i1 %10, label %11, label %13, !dbg !2570

; <label>:11:                                     ; preds = %2
  %12 = load i32*, i32** %5, align 4, !dbg !2571
  store i32* %12, i32** %3, align 4, !dbg !2572
  br label %15, !dbg !2572

; <label>:13:                                     ; preds = %2
  %14 = load i32*, i32** %4, align 4, !dbg !2573
  store i32* %14, i32** %3, align 4, !dbg !2574
  br label %15, !dbg !2574

; <label>:15:                                     ; preds = %13, %11
  %16 = load i32*, i32** %3, align 4, !dbg !2575
  ret i32* %16, !dbg !2575
}

define linkonce_odr float** @_ZNSt11_Deque_baseIfSaIfEE15_M_allocate_mapEj(%"class.std::_Deque_base"*, i32) #0 comdat align 2 personality i8* bitcast (i32 (...)* @__gxx_personality_v0 to i8*) !dbg !2576 !xidane.fname !2577 !xidane.function_declaration_type !2578 !xidane.function_declaration_filename !2137 {
  %3 = alloca %"class.std::_Deque_base"*, align 4
  %4 = alloca i32, align 4
  %5 = alloca %"class.std::allocator.3", align 1
  %6 = alloca i8*
  %7 = alloca i32
  store %"class.std::_Deque_base"* %0, %"class.std::_Deque_base"** %3, align 4
  call void @llvm.dbg.declare(metadata %"class.std::_Deque_base"** %3, metadata !2579, metadata !1650), !dbg !2580
  store i32 %1, i32* %4, align 4
  call void @llvm.dbg.declare(metadata i32* %4, metadata !2581, metadata !1650), !dbg !2582
  %8 = load %"class.std::_Deque_base"*, %"class.std::_Deque_base"** %3, align 4
  call void @llvm.dbg.declare(metadata %"class.std::allocator.3"* %5, metadata !2583, metadata !1650), !dbg !2584
  call void @_ZNKSt11_Deque_baseIfSaIfEE20_M_get_map_allocatorEv(%"class.std::allocator.3"* sret %5, %"class.std::_Deque_base"* %8) #3, !dbg !2585
  %9 = load i32, i32* %4, align 4, !dbg !2586
  %10 = invoke float** @_ZNSt16allocator_traitsISaIPfEE8allocateERS1_j(%"class.std::allocator.3"* dereferenceable(1) %5, i32 %9)
          to label %11 unwind label %13, !dbg !2587

; <label>:11:                                     ; preds = %2
  %12 = call %"class.std::allocator.3"* @_ZNSaIPfED2Ev(%"class.std::allocator.3"* %5) #3, !dbg !2588
  ret float** %10, !dbg !2588

; <label>:13:                                     ; preds = %2
  %14 = landingpad { i8*, i32 }
          cleanup, !dbg !2589
  %15 = extractvalue { i8*, i32 } %14, 0, !dbg !2589
  store i8* %15, i8** %6, align 4, !dbg !2589
  %16 = extractvalue { i8*, i32 } %14, 1, !dbg !2589
  store i32 %16, i32* %7, align 4, !dbg !2589
  %17 = call %"class.std::allocator.3"* @_ZNSaIPfED2Ev(%"class.std::allocator.3"* %5) #3, !dbg !2589
  br label %18, !dbg !2589

; <label>:18:                                     ; preds = %13
  %19 = load i8*, i8** %6, align 4, !dbg !2591
  %20 = load i32, i32* %7, align 4, !dbg !2591
  %21 = insertvalue { i8*, i32 } undef, i8* %19, 0, !dbg !2591
  %22 = insertvalue { i8*, i32 } %21, i32 %20, 1, !dbg !2591
  resume { i8*, i32 } %22, !dbg !2591
}

; Function Attrs: nounwind
define linkonce_odr void @_ZNSt11_Deque_baseIfSaIfEE17_M_deallocate_mapEPPfj(%"class.std::_Deque_base"*, float**, i32) #4 comdat align 2 personality i8* bitcast (i32 (...)* @__gxx_personality_v0 to i8*) !dbg !2593 !xidane.fname !2594 !xidane.function_declaration_type !2595 !xidane.function_declaration_filename !2137 {
  %4 = alloca %"class.std::_Deque_base"*, align 4
  %5 = alloca float**, align 4
  %6 = alloca i32, align 4
  %7 = alloca %"class.std::allocator.3", align 1
  %8 = alloca i8*
  %9 = alloca i32
  store %"class.std::_Deque_base"* %0, %"class.std::_Deque_base"** %4, align 4
  call void @llvm.dbg.declare(metadata %"class.std::_Deque_base"** %4, metadata !2596, metadata !1650), !dbg !2597
  store float** %1, float*** %5, align 4
  call void @llvm.dbg.declare(metadata float*** %5, metadata !2598, metadata !1650), !dbg !2599
  store i32 %2, i32* %6, align 4
  call void @llvm.dbg.declare(metadata i32* %6, metadata !2600, metadata !1650), !dbg !2601
  %10 = load %"class.std::_Deque_base"*, %"class.std::_Deque_base"** %4, align 4
  call void @llvm.dbg.declare(metadata %"class.std::allocator.3"* %7, metadata !2602, metadata !1650), !dbg !2603
  call void @_ZNKSt11_Deque_baseIfSaIfEE20_M_get_map_allocatorEv(%"class.std::allocator.3"* sret %7, %"class.std::_Deque_base"* %10) #3, !dbg !2604
  %11 = load float**, float*** %5, align 4, !dbg !2605
  %12 = load i32, i32* %6, align 4, !dbg !2606
  invoke void @_ZNSt16allocator_traitsISaIPfEE10deallocateERS1_PS0_j(%"class.std::allocator.3"* dereferenceable(1) %7, float** %11, i32 %12)
          to label %13 unwind label %15, !dbg !2607

; <label>:13:                                     ; preds = %3
  %14 = call %"class.std::allocator.3"* @_ZNSaIPfED2Ev(%"class.std::allocator.3"* %7) #3, !dbg !2608
  ret void, !dbg !2608

; <label>:15:                                     ; preds = %3
  %16 = landingpad { i8*, i32 }
          catch i8* null, !dbg !2609
  %17 = extractvalue { i8*, i32 } %16, 0, !dbg !2609
  store i8* %17, i8** %8, align 4, !dbg !2609
  %18 = extractvalue { i8*, i32 } %16, 1, !dbg !2609
  store i32 %18, i32* %9, align 4, !dbg !2609
  %19 = call %"class.std::allocator.3"* @_ZNSaIPfED2Ev(%"class.std::allocator.3"* %7) #3, !dbg !2609
  br label %20, !dbg !2609

; <label>:20:                                     ; preds = %15
  %21 = load i8*, i8** %8, align 4, !dbg !2611
  call void @__clang_call_terminate(i8* %21) #14, !dbg !2611
  unreachable, !dbg !2611
}

; Function Attrs: inlinehint
define linkonce_odr float** @_ZSt14__copy_move_a2ILb0EPPfS1_ET1_T0_S3_S2_(float**, float**, float**) #7 comdat !dbg !2613 !xidane.fname !2616 !xidane.function_declaration_type !2518 !xidane.function_declaration_filename !2519 {
  %4 = alloca float**, align 4
  %5 = alloca float**, align 4
  %6 = alloca float**, align 4
  store float** %0, float*** %4, align 4
  call void @llvm.dbg.declare(metadata float*** %4, metadata !2617, metadata !1650), !dbg !2618
  store float** %1, float*** %5, align 4
  call void @llvm.dbg.declare(metadata float*** %5, metadata !2619, metadata !1650), !dbg !2620
  store float** %2, float*** %6, align 4
  call void @llvm.dbg.declare(metadata float*** %6, metadata !2621, metadata !1650), !dbg !2622
  %7 = load float**, float*** %4, align 4, !dbg !2623
  %8 = call float** @_ZSt12__niter_baseIPPfET_S2_(float** %7), !dbg !2624
  %9 = load float**, float*** %5, align 4, !dbg !2625
  %10 = call float** @_ZSt12__niter_baseIPPfET_S2_(float** %9), !dbg !2626
  %11 = load float**, float*** %6, align 4, !dbg !2627
  %12 = call float** @_ZSt12__niter_baseIPPfET_S2_(float** %11), !dbg !2628
  %13 = call float** @_ZSt13__copy_move_aILb0EPPfS1_ET1_T0_S3_S2_(float** %8, float** %10, float** %12), !dbg !2629
  ret float** %13, !dbg !2631
}

; Function Attrs: inlinehint nounwind
define linkonce_odr float** @_ZSt12__miter_baseIPPfET_S2_(float**) #8 comdat !dbg !2632 !xidane.fname !2637 !xidane.function_declaration_type !2638 !xidane.function_declaration_filename !2639 {
  %2 = alloca float**, align 4
  store float** %0, float*** %2, align 4
  call void @llvm.dbg.declare(metadata float*** %2, metadata !2640, metadata !1650), !dbg !2641
  %3 = load float**, float*** %2, align 4, !dbg !2642
  ret float** %3, !dbg !2643
}

; Function Attrs: inlinehint
define linkonce_odr float** @_ZSt13__copy_move_aILb0EPPfS1_ET1_T0_S3_S2_(float**, float**, float**) #7 comdat !dbg !2644 !xidane.fname !2645 !xidane.function_declaration_type !2518 !xidane.function_declaration_filename !2519 {
  %4 = alloca float**, align 4
  %5 = alloca float**, align 4
  %6 = alloca float**, align 4
  %7 = alloca i8, align 1
  store float** %0, float*** %4, align 4
  call void @llvm.dbg.declare(metadata float*** %4, metadata !2646, metadata !1650), !dbg !2647
  store float** %1, float*** %5, align 4
  call void @llvm.dbg.declare(metadata float*** %5, metadata !2648, metadata !1650), !dbg !2649
  store float** %2, float*** %6, align 4
  call void @llvm.dbg.declare(metadata float*** %6, metadata !2650, metadata !1650), !dbg !2651
  call void @llvm.dbg.declare(metadata i8* %7, metadata !2652, metadata !1650), !dbg !2653
  store i8 1, i8* %7, align 1, !dbg !2653
  %8 = load float**, float*** %4, align 4, !dbg !2654
  %9 = load float**, float*** %5, align 4, !dbg !2655
  %10 = load float**, float*** %6, align 4, !dbg !2656
  %11 = call float** @_ZNSt11__copy_moveILb0ELb1ESt26random_access_iterator_tagE8__copy_mIPfEEPT_PKS4_S7_S5_(float** %8, float** %9, float** %10), !dbg !2657
  ret float** %11, !dbg !2658
}

; Function Attrs: inlinehint nounwind
define linkonce_odr float** @_ZSt12__niter_baseIPPfET_S2_(float**) #8 comdat !dbg !2659 !xidane.fname !2660 !xidane.function_declaration_type !2638 !xidane.function_declaration_filename !2519 {
  %2 = alloca float**, align 4
  store float** %0, float*** %2, align 4
  call void @llvm.dbg.declare(metadata float*** %2, metadata !2661, metadata !1650), !dbg !2662
  %3 = load float**, float*** %2, align 4, !dbg !2663
  ret float** %3, !dbg !2664
}

; Function Attrs: nounwind
define linkonce_odr float** @_ZNSt11__copy_moveILb0ELb1ESt26random_access_iterator_tagE8__copy_mIPfEEPT_PKS4_S7_S5_(float**, float**, float**) #4 comdat align 2 !dbg !2665 !xidane.fname !2685 !xidane.function_declaration_type !2686 !xidane.function_declaration_filename !2519 {
  %4 = alloca float**, align 4
  %5 = alloca float**, align 4
  %6 = alloca float**, align 4
  %7 = alloca i32, align 4
  store float** %0, float*** %4, align 4
  call void @llvm.dbg.declare(metadata float*** %4, metadata !2687, metadata !1650), !dbg !2688
  store float** %1, float*** %5, align 4
  call void @llvm.dbg.declare(metadata float*** %5, metadata !2689, metadata !1650), !dbg !2690
  store float** %2, float*** %6, align 4
  call void @llvm.dbg.declare(metadata float*** %6, metadata !2691, metadata !1650), !dbg !2692
  call void @llvm.dbg.declare(metadata i32* %7, metadata !2693, metadata !1650), !dbg !2695
  %8 = load float**, float*** %5, align 4, !dbg !2696
  %9 = load float**, float*** %4, align 4, !dbg !2697
  %10 = ptrtoint float** %8 to i32, !dbg !2698
  %11 = ptrtoint float** %9 to i32, !dbg !2698
  %12 = sub i32 %10, %11, !dbg !2698
  %13 = sdiv exact i32 %12, 4, !dbg !2698
  store i32 %13, i32* %7, align 4, !dbg !2695
  %14 = load i32, i32* %7, align 4, !dbg !2699
  %15 = icmp ne i32 %14, 0, !dbg !2699
  br i1 %15, label %16, label %23, !dbg !2701

; <label>:16:                                     ; preds = %3
  %17 = load float**, float*** %6, align 4, !dbg !2702
  %18 = bitcast float** %17 to i8*, !dbg !2703
  %19 = load float**, float*** %4, align 4, !dbg !2704
  %20 = bitcast float** %19 to i8*, !dbg !2703
  %21 = load i32, i32* %7, align 4, !dbg !2705
  %22 = mul i32 4, %21, !dbg !2706
  call void @llvm.memmove.p0i8.p0i8.i32(i8* %18, i8* %20, i32 %22, i32 4, i1 false), !dbg !2703
  br label %23, !dbg !2703

; <label>:23:                                     ; preds = %16, %3
  %24 = load float**, float*** %6, align 4, !dbg !2707
  %25 = load i32, i32* %7, align 4, !dbg !2708
  %26 = getelementptr inbounds float*, float** %24, i32 %25, !dbg !2709
  ret float** %26, !dbg !2710
}

; Function Attrs: argmemonly nounwind
declare void @llvm.memmove.p0i8.p0i8.i32(i8* nocapture, i8* nocapture readonly, i32, i32, i1) #9

; Function Attrs: inlinehint
define linkonce_odr float** @_ZSt23__copy_move_backward_a2ILb0EPPfS1_ET1_T0_S3_S2_(float**, float**, float**) #7 comdat !dbg !2711 !xidane.fname !2713 !xidane.function_declaration_type !2518 !xidane.function_declaration_filename !2519 {
  %4 = alloca float**, align 4
  %5 = alloca float**, align 4
  %6 = alloca float**, align 4
  store float** %0, float*** %4, align 4
  call void @llvm.dbg.declare(metadata float*** %4, metadata !2714, metadata !1650), !dbg !2715
  store float** %1, float*** %5, align 4
  call void @llvm.dbg.declare(metadata float*** %5, metadata !2716, metadata !1650), !dbg !2717
  store float** %2, float*** %6, align 4
  call void @llvm.dbg.declare(metadata float*** %6, metadata !2718, metadata !1650), !dbg !2719
  %7 = load float**, float*** %4, align 4, !dbg !2720
  %8 = call float** @_ZSt12__niter_baseIPPfET_S2_(float** %7), !dbg !2721
  %9 = load float**, float*** %5, align 4, !dbg !2722
  %10 = call float** @_ZSt12__niter_baseIPPfET_S2_(float** %9), !dbg !2723
  %11 = load float**, float*** %6, align 4, !dbg !2725
  %12 = call float** @_ZSt12__niter_baseIPPfET_S2_(float** %11), !dbg !2726
  %13 = call float** @_ZSt22__copy_move_backward_aILb0EPPfS1_ET1_T0_S3_S2_(float** %8, float** %10, float** %12), !dbg !2727
  ret float** %13, !dbg !2728
}

; Function Attrs: inlinehint
define linkonce_odr float** @_ZSt22__copy_move_backward_aILb0EPPfS1_ET1_T0_S3_S2_(float**, float**, float**) #7 comdat !dbg !2729 !xidane.fname !2730 !xidane.function_declaration_type !2518 !xidane.function_declaration_filename !2519 {
  %4 = alloca float**, align 4
  %5 = alloca float**, align 4
  %6 = alloca float**, align 4
  %7 = alloca i8, align 1
  store float** %0, float*** %4, align 4
  call void @llvm.dbg.declare(metadata float*** %4, metadata !2731, metadata !1650), !dbg !2732
  store float** %1, float*** %5, align 4
  call void @llvm.dbg.declare(metadata float*** %5, metadata !2733, metadata !1650), !dbg !2734
  store float** %2, float*** %6, align 4
  call void @llvm.dbg.declare(metadata float*** %6, metadata !2735, metadata !1650), !dbg !2736
  call void @llvm.dbg.declare(metadata i8* %7, metadata !2737, metadata !1650), !dbg !2738
  store i8 1, i8* %7, align 1, !dbg !2738
  %8 = load float**, float*** %4, align 4, !dbg !2739
  %9 = load float**, float*** %5, align 4, !dbg !2740
  %10 = load float**, float*** %6, align 4, !dbg !2741
  %11 = call float** @_ZNSt20__copy_move_backwardILb0ELb1ESt26random_access_iterator_tagE13__copy_move_bIPfEEPT_PKS4_S7_S5_(float** %8, float** %9, float** %10), !dbg !2742
  ret float** %11, !dbg !2743
}

; Function Attrs: nounwind
define linkonce_odr float** @_ZNSt20__copy_move_backwardILb0ELb1ESt26random_access_iterator_tagE13__copy_move_bIPfEEPT_PKS4_S7_S5_(float**, float**, float**) #4 comdat align 2 !dbg !2744 !xidane.fname !2747 !xidane.function_declaration_type !2686 !xidane.function_declaration_filename !2519 {
  %4 = alloca float**, align 4
  %5 = alloca float**, align 4
  %6 = alloca float**, align 4
  %7 = alloca i32, align 4
  store float** %0, float*** %4, align 4
  call void @llvm.dbg.declare(metadata float*** %4, metadata !2748, metadata !1650), !dbg !2749
  store float** %1, float*** %5, align 4
  call void @llvm.dbg.declare(metadata float*** %5, metadata !2750, metadata !1650), !dbg !2751
  store float** %2, float*** %6, align 4
  call void @llvm.dbg.declare(metadata float*** %6, metadata !2752, metadata !1650), !dbg !2753
  call void @llvm.dbg.declare(metadata i32* %7, metadata !2754, metadata !1650), !dbg !2755
  %8 = load float**, float*** %5, align 4, !dbg !2756
  %9 = load float**, float*** %4, align 4, !dbg !2757
  %10 = ptrtoint float** %8 to i32, !dbg !2758
  %11 = ptrtoint float** %9 to i32, !dbg !2758
  %12 = sub i32 %10, %11, !dbg !2758
  %13 = sdiv exact i32 %12, 4, !dbg !2758
  store i32 %13, i32* %7, align 4, !dbg !2755
  %14 = load i32, i32* %7, align 4, !dbg !2759
  %15 = icmp ne i32 %14, 0, !dbg !2759
  br i1 %15, label %16, label %26, !dbg !2761

; <label>:16:                                     ; preds = %3
  %17 = load float**, float*** %6, align 4, !dbg !2762
  %18 = load i32, i32* %7, align 4, !dbg !2763
  %19 = sub i32 0, %18, !dbg !2764
  %20 = getelementptr inbounds float*, float** %17, i32 %19, !dbg !2764
  %21 = bitcast float** %20 to i8*, !dbg !2765
  %22 = load float**, float*** %4, align 4, !dbg !2766
  %23 = bitcast float** %22 to i8*, !dbg !2765
  %24 = load i32, i32* %7, align 4, !dbg !2767
  %25 = mul i32 4, %24, !dbg !2768
  call void @llvm.memmove.p0i8.p0i8.i32(i8* %21, i8* %23, i32 %25, i32 4, i1 false), !dbg !2765
  br label %26, !dbg !2765

; <label>:26:                                     ; preds = %16, %3
  %27 = load float**, float*** %6, align 4, !dbg !2769
  %28 = load i32, i32* %7, align 4, !dbg !2770
  %29 = sub i32 0, %28, !dbg !2771
  %30 = getelementptr inbounds float*, float** %27, i32 %29, !dbg !2771
  ret float** %30, !dbg !2772
}

; Function Attrs: nounwind
define linkonce_odr void @_ZNKSt11_Deque_baseIfSaIfEE20_M_get_map_allocatorEv(%"class.std::allocator.3"* noalias sret, %"class.std::_Deque_base"*) #4 comdat align 2 !dbg !2773 !xidane.fname !2774 !xidane.function_declaration_type !2775 !xidane.function_declaration_filename !2137 {
  %3 = alloca %"class.std::_Deque_base"*, align 4
  store %"class.std::_Deque_base"* %1, %"class.std::_Deque_base"** %3, align 4
  call void @llvm.dbg.declare(metadata %"class.std::_Deque_base"** %3, metadata !2776, metadata !1650), !dbg !2778
  %4 = load %"class.std::_Deque_base"*, %"class.std::_Deque_base"** %3, align 4
  %5 = call dereferenceable(1) %"class.std::allocator.0"* @_ZNKSt11_Deque_baseIfSaIfEE19_M_get_Tp_allocatorEv(%"class.std::_Deque_base"* %4) #3, !dbg !2779
  %6 = call %"class.std::allocator.3"* @_ZNSaIPfEC2IfEERKSaIT_E(%"class.std::allocator.3"* %0, %"class.std::allocator.0"* dereferenceable(1) %5) #3, !dbg !2780
  ret void, !dbg !2782
}

define linkonce_odr float** @_ZNSt16allocator_traitsISaIPfEE8allocateERS1_j(%"class.std::allocator.3"* dereferenceable(1), i32) #0 comdat align 2 !dbg !2783 !xidane.fname !2809 !xidane.function_declaration_type !2810 !xidane.function_declaration_filename !2180 {
  %3 = alloca %"class.std::allocator.3"*, align 4
  %4 = alloca i32, align 4
  store %"class.std::allocator.3"* %0, %"class.std::allocator.3"** %3, align 4
  call void @llvm.dbg.declare(metadata %"class.std::allocator.3"** %3, metadata !2811, metadata !1650), !dbg !2812
  store i32 %1, i32* %4, align 4
  call void @llvm.dbg.declare(metadata i32* %4, metadata !2813, metadata !1650), !dbg !2814
  %5 = load %"class.std::allocator.3"*, %"class.std::allocator.3"** %3, align 4, !dbg !2815
  %6 = bitcast %"class.std::allocator.3"* %5 to %"class.__gnu_cxx::new_allocator.4"*, !dbg !2815
  %7 = load i32, i32* %4, align 4, !dbg !2816
  %8 = call float** @_ZN9__gnu_cxx13new_allocatorIPfE8allocateEjPKv(%"class.__gnu_cxx::new_allocator.4"* %6, i32 %7, i8* null), !dbg !2817
  ret float** %8, !dbg !2818
}

; Function Attrs: nounwind
define linkonce_odr %"class.std::allocator.3"* @_ZNSaIPfED2Ev(%"class.std::allocator.3"* returned) unnamed_addr #4 comdat align 2 !dbg !2819 !xidane.fname !2820 !xidane.function_declaration_type !1636 !xidane.function_declaration_filename !2821 {
  %2 = alloca %"class.std::allocator.3"*, align 4
  store %"class.std::allocator.3"* %0, %"class.std::allocator.3"** %2, align 4
  call void @llvm.dbg.declare(metadata %"class.std::allocator.3"** %2, metadata !2822, metadata !1650), !dbg !2824
  %3 = load %"class.std::allocator.3"*, %"class.std::allocator.3"** %2, align 4
  %4 = bitcast %"class.std::allocator.3"* %3 to %"class.__gnu_cxx::new_allocator.4"*, !dbg !2825
  %5 = call %"class.__gnu_cxx::new_allocator.4"* @_ZN9__gnu_cxx13new_allocatorIPfED2Ev(%"class.__gnu_cxx::new_allocator.4"* %4) #3, !dbg !2825
  ret %"class.std::allocator.3"* %3, !dbg !2827
}

; Function Attrs: nounwind
define linkonce_odr dereferenceable(1) %"class.std::allocator.0"* @_ZNKSt11_Deque_baseIfSaIfEE19_M_get_Tp_allocatorEv(%"class.std::_Deque_base"*) #4 comdat align 2 !dbg !2828 !xidane.fname !2829 !xidane.function_declaration_type !2830 !xidane.function_declaration_filename !2137 {
  %2 = alloca %"class.std::_Deque_base"*, align 4
  store %"class.std::_Deque_base"* %0, %"class.std::_Deque_base"** %2, align 4
  call void @llvm.dbg.declare(metadata %"class.std::_Deque_base"** %2, metadata !2831, metadata !1650), !dbg !2832
  %3 = load %"class.std::_Deque_base"*, %"class.std::_Deque_base"** %2, align 4
  %4 = getelementptr inbounds %"class.std::_Deque_base", %"class.std::_Deque_base"* %3, i32 0, i32 0, !dbg !2833
  %5 = bitcast %"struct.std::_Deque_base<float, std::allocator<float> >::_Deque_impl"* %4 to %"class.std::allocator.0"*, !dbg !2834
  ret %"class.std::allocator.0"* %5, !dbg !2835
}

; Function Attrs: nounwind
define linkonce_odr %"class.std::allocator.3"* @_ZNSaIPfEC2IfEERKSaIT_E(%"class.std::allocator.3"* returned, %"class.std::allocator.0"* dereferenceable(1)) unnamed_addr #4 comdat align 2 !dbg !2836 !xidane.fname !2842 !xidane.function_declaration_type !2843 !xidane.function_declaration_filename !2821 {
  %3 = alloca %"class.std::allocator.3"*, align 4
  %4 = alloca %"class.std::allocator.0"*, align 4
  store %"class.std::allocator.3"* %0, %"class.std::allocator.3"** %3, align 4
  call void @llvm.dbg.declare(metadata %"class.std::allocator.3"** %3, metadata !2844, metadata !1650), !dbg !2845
  store %"class.std::allocator.0"* %1, %"class.std::allocator.0"** %4, align 4
  call void @llvm.dbg.declare(metadata %"class.std::allocator.0"** %4, metadata !2846, metadata !1650), !dbg !2847
  %5 = load %"class.std::allocator.3"*, %"class.std::allocator.3"** %3, align 4
  %6 = bitcast %"class.std::allocator.3"* %5 to %"class.__gnu_cxx::new_allocator.4"*, !dbg !2848
  %7 = call %"class.__gnu_cxx::new_allocator.4"* @_ZN9__gnu_cxx13new_allocatorIPfEC2Ev(%"class.__gnu_cxx::new_allocator.4"* %6) #3, !dbg !2849
  ret %"class.std::allocator.3"* %5, !dbg !2850
}

; Function Attrs: nounwind
define linkonce_odr %"class.__gnu_cxx::new_allocator.4"* @_ZN9__gnu_cxx13new_allocatorIPfEC2Ev(%"class.__gnu_cxx::new_allocator.4"* returned) unnamed_addr #4 comdat align 2 !dbg !2851 !xidane.fname !2852 !xidane.function_declaration_type !1636 !xidane.function_declaration_filename !2264 {
  %2 = alloca %"class.__gnu_cxx::new_allocator.4"*, align 4
  store %"class.__gnu_cxx::new_allocator.4"* %0, %"class.__gnu_cxx::new_allocator.4"** %2, align 4
  call void @llvm.dbg.declare(metadata %"class.__gnu_cxx::new_allocator.4"** %2, metadata !2853, metadata !1650), !dbg !2855
  %3 = load %"class.__gnu_cxx::new_allocator.4"*, %"class.__gnu_cxx::new_allocator.4"** %2, align 4
  ret %"class.__gnu_cxx::new_allocator.4"* %3, !dbg !2856
}

define linkonce_odr float** @_ZN9__gnu_cxx13new_allocatorIPfE8allocateEjPKv(%"class.__gnu_cxx::new_allocator.4"*, i32, i8*) #0 comdat align 2 !dbg !2857 !xidane.fname !2809 !xidane.function_declaration_type !2858 !xidane.function_declaration_filename !2264 {
  %4 = alloca %"class.__gnu_cxx::new_allocator.4"*, align 4
  %5 = alloca i32, align 4
  %6 = alloca i8*, align 4
  store %"class.__gnu_cxx::new_allocator.4"* %0, %"class.__gnu_cxx::new_allocator.4"** %4, align 4
  call void @llvm.dbg.declare(metadata %"class.__gnu_cxx::new_allocator.4"** %4, metadata !2859, metadata !1650), !dbg !2860
  store i32 %1, i32* %5, align 4
  call void @llvm.dbg.declare(metadata i32* %5, metadata !2861, metadata !1650), !dbg !2862
  store i8* %2, i8** %6, align 4
  call void @llvm.dbg.declare(metadata i8** %6, metadata !2863, metadata !1650), !dbg !2864
  %7 = load %"class.__gnu_cxx::new_allocator.4"*, %"class.__gnu_cxx::new_allocator.4"** %4, align 4
  %8 = load i32, i32* %5, align 4, !dbg !2865
  %9 = call i32 @_ZNK9__gnu_cxx13new_allocatorIPfE8max_sizeEv(%"class.__gnu_cxx::new_allocator.4"* %7) #3, !dbg !2867
  %10 = icmp ugt i32 %8, %9, !dbg !2868
  br i1 %10, label %11, label %12, !dbg !2869

; <label>:11:                                     ; preds = %3
  call void @_ZSt17__throw_bad_allocv() #13, !dbg !2870
  unreachable, !dbg !2870

; <label>:12:                                     ; preds = %3
  %13 = load i32, i32* %5, align 4, !dbg !2871
  %14 = mul i32 %13, 4, !dbg !2872
  %15 = call i8* @_Znwj(i32 %14), !dbg !2873
  %16 = bitcast i8* %15 to float**, !dbg !2874
  ret float** %16, !dbg !2875
}

; Function Attrs: nounwind
define linkonce_odr i32 @_ZNK9__gnu_cxx13new_allocatorIPfE8max_sizeEv(%"class.__gnu_cxx::new_allocator.4"*) #4 comdat align 2 !dbg !2876 !xidane.fname !2877 !xidane.function_declaration_type !2878 !xidane.function_declaration_filename !2264 {
  %2 = alloca %"class.__gnu_cxx::new_allocator.4"*, align 4
  store %"class.__gnu_cxx::new_allocator.4"* %0, %"class.__gnu_cxx::new_allocator.4"** %2, align 4
  call void @llvm.dbg.declare(metadata %"class.__gnu_cxx::new_allocator.4"** %2, metadata !2879, metadata !1650), !dbg !2881
  %3 = load %"class.__gnu_cxx::new_allocator.4"*, %"class.__gnu_cxx::new_allocator.4"** %2, align 4
  ret i32 1073741823, !dbg !2882
}

; Function Attrs: noreturn
declare !xidane.fname !2883 !xidane.function_declaration_type !1636 !xidane.function_declaration_filename !2884 void @_ZSt17__throw_bad_allocv() #10

; Function Attrs: nobuiltin
declare !xidane.fname !2885 !xidane.function_declaration_type !2886 noalias i8* @_Znwj(i32) #11

; Function Attrs: nounwind
define linkonce_odr %"class.__gnu_cxx::new_allocator.4"* @_ZN9__gnu_cxx13new_allocatorIPfED2Ev(%"class.__gnu_cxx::new_allocator.4"* returned) unnamed_addr #4 comdat align 2 !dbg !2887 !xidane.fname !2888 !xidane.function_declaration_type !1636 !xidane.function_declaration_filename !2264 {
  %2 = alloca %"class.__gnu_cxx::new_allocator.4"*, align 4
  store %"class.__gnu_cxx::new_allocator.4"* %0, %"class.__gnu_cxx::new_allocator.4"** %2, align 4
  call void @llvm.dbg.declare(metadata %"class.__gnu_cxx::new_allocator.4"** %2, metadata !2889, metadata !1650), !dbg !2890
  %3 = load %"class.__gnu_cxx::new_allocator.4"*, %"class.__gnu_cxx::new_allocator.4"** %2, align 4
  ret %"class.__gnu_cxx::new_allocator.4"* %3, !dbg !2891
}

define linkonce_odr void @_ZNSt16allocator_traitsISaIPfEE10deallocateERS1_PS0_j(%"class.std::allocator.3"* dereferenceable(1), float**, i32) #0 comdat align 2 !dbg !2892 !xidane.fname !2893 !xidane.function_declaration_type !2894 !xidane.function_declaration_filename !2180 {
  %4 = alloca %"class.std::allocator.3"*, align 4
  %5 = alloca float**, align 4
  %6 = alloca i32, align 4
  store %"class.std::allocator.3"* %0, %"class.std::allocator.3"** %4, align 4
  call void @llvm.dbg.declare(metadata %"class.std::allocator.3"** %4, metadata !2895, metadata !1650), !dbg !2896
  store float** %1, float*** %5, align 4
  call void @llvm.dbg.declare(metadata float*** %5, metadata !2897, metadata !1650), !dbg !2898
  store i32 %2, i32* %6, align 4
  call void @llvm.dbg.declare(metadata i32* %6, metadata !2899, metadata !1650), !dbg !2900
  %7 = load %"class.std::allocator.3"*, %"class.std::allocator.3"** %4, align 4, !dbg !2901
  %8 = bitcast %"class.std::allocator.3"* %7 to %"class.__gnu_cxx::new_allocator.4"*, !dbg !2901
  %9 = load float**, float*** %5, align 4, !dbg !2902
  %10 = load i32, i32* %6, align 4, !dbg !2903
  call void @_ZN9__gnu_cxx13new_allocatorIPfE10deallocateEPS1_j(%"class.__gnu_cxx::new_allocator.4"* %8, float** %9, i32 %10), !dbg !2904
  ret void, !dbg !2905
}

; Function Attrs: nounwind
define linkonce_odr void @_ZN9__gnu_cxx13new_allocatorIPfE10deallocateEPS1_j(%"class.__gnu_cxx::new_allocator.4"*, float**, i32) #4 comdat align 2 !dbg !2906 !xidane.fname !2893 !xidane.function_declaration_type !2907 !xidane.function_declaration_filename !2264 {
  %4 = alloca %"class.__gnu_cxx::new_allocator.4"*, align 4
  %5 = alloca float**, align 4
  %6 = alloca i32, align 4
  store %"class.__gnu_cxx::new_allocator.4"* %0, %"class.__gnu_cxx::new_allocator.4"** %4, align 4
  call void @llvm.dbg.declare(metadata %"class.__gnu_cxx::new_allocator.4"** %4, metadata !2908, metadata !1650), !dbg !2909
  store float** %1, float*** %5, align 4
  call void @llvm.dbg.declare(metadata float*** %5, metadata !2910, metadata !1650), !dbg !2911
  store i32 %2, i32* %6, align 4
  call void @llvm.dbg.declare(metadata i32* %6, metadata !2912, metadata !1650), !dbg !2913
  %7 = load %"class.__gnu_cxx::new_allocator.4"*, %"class.__gnu_cxx::new_allocator.4"** %4, align 4
  %8 = load float**, float*** %5, align 4, !dbg !2914
  %9 = bitcast float** %8 to i8*, !dbg !2914
  call void @_ZdlPv(i8* %9) #3, !dbg !2915
  ret void, !dbg !2916
}

; Function Attrs: nobuiltin nounwind
declare !xidane.fname !2917 !xidane.function_declaration_type !2918 void @_ZdlPv(i8*) #12

define linkonce_odr float* @_ZNSt16allocator_traitsISaIfEE8allocateERS0_j(%"class.std::allocator.0"* dereferenceable(1), i32) #0 comdat align 2 !dbg !2919 !xidane.fname !2809 !xidane.function_declaration_type !2810 !xidane.function_declaration_filename !2180 {
  %3 = alloca %"class.std::allocator.0"*, align 4
  %4 = alloca i32, align 4
  store %"class.std::allocator.0"* %0, %"class.std::allocator.0"** %3, align 4
  call void @llvm.dbg.declare(metadata %"class.std::allocator.0"** %3, metadata !2920, metadata !1650), !dbg !2921
  store i32 %1, i32* %4, align 4
  call void @llvm.dbg.declare(metadata i32* %4, metadata !2922, metadata !1650), !dbg !2923
  %5 = load %"class.std::allocator.0"*, %"class.std::allocator.0"** %3, align 4, !dbg !2924
  %6 = bitcast %"class.std::allocator.0"* %5 to %"class.__gnu_cxx::new_allocator.1"*, !dbg !2924
  %7 = load i32, i32* %4, align 4, !dbg !2925
  %8 = call float* @_ZN9__gnu_cxx13new_allocatorIfE8allocateEjPKv(%"class.__gnu_cxx::new_allocator.1"* %6, i32 %7, i8* null), !dbg !2926
  ret float* %8, !dbg !2927
}

; Function Attrs: inlinehint nounwind
define linkonce_odr i32 @_ZSt16__deque_buf_sizej(i32) #8 comdat !dbg !2928 !xidane.fname !2931 !xidane.function_declaration_type !2932 !xidane.function_declaration_filename !2137 {
  %2 = alloca i32, align 4
  store i32 %0, i32* %2, align 4
  call void @llvm.dbg.declare(metadata i32* %2, metadata !2933, metadata !1650), !dbg !2934
  %3 = load i32, i32* %2, align 4, !dbg !2935
  %4 = icmp ult i32 %3, 512, !dbg !2936
  br i1 %4, label %5, label %8, !dbg !2935

; <label>:5:                                      ; preds = %1
  %6 = load i32, i32* %2, align 4, !dbg !2937
  %7 = udiv i32 512, %6, !dbg !2938
  br label %9, !dbg !2939

; <label>:8:                                      ; preds = %1
  br label %9, !dbg !2941

; <label>:9:                                      ; preds = %8, %5
  %10 = phi i32 [ %7, %5 ], [ 1, %8 ], !dbg !2943
  ret i32 %10, !dbg !2945
}

define linkonce_odr float* @_ZN9__gnu_cxx13new_allocatorIfE8allocateEjPKv(%"class.__gnu_cxx::new_allocator.1"*, i32, i8*) #0 comdat align 2 !dbg !2946 !xidane.fname !2809 !xidane.function_declaration_type !2858 !xidane.function_declaration_filename !2264 {
  %4 = alloca %"class.__gnu_cxx::new_allocator.1"*, align 4
  %5 = alloca i32, align 4
  %6 = alloca i8*, align 4
  store %"class.__gnu_cxx::new_allocator.1"* %0, %"class.__gnu_cxx::new_allocator.1"** %4, align 4
  call void @llvm.dbg.declare(metadata %"class.__gnu_cxx::new_allocator.1"** %4, metadata !2947, metadata !1650), !dbg !2948
  store i32 %1, i32* %5, align 4
  call void @llvm.dbg.declare(metadata i32* %5, metadata !2949, metadata !1650), !dbg !2950
  store i8* %2, i8** %6, align 4
  call void @llvm.dbg.declare(metadata i8** %6, metadata !2951, metadata !1650), !dbg !2952
  %7 = load %"class.__gnu_cxx::new_allocator.1"*, %"class.__gnu_cxx::new_allocator.1"** %4, align 4
  %8 = load i32, i32* %5, align 4, !dbg !2953
  %9 = call i32 @_ZNK9__gnu_cxx13new_allocatorIfE8max_sizeEv(%"class.__gnu_cxx::new_allocator.1"* %7) #3, !dbg !2955
  %10 = icmp ugt i32 %8, %9, !dbg !2956
  br i1 %10, label %11, label %12, !dbg !2957

; <label>:11:                                     ; preds = %3
  call void @_ZSt17__throw_bad_allocv() #13, !dbg !2958
  unreachable, !dbg !2958

; <label>:12:                                     ; preds = %3
  %13 = load i32, i32* %5, align 4, !dbg !2959
  %14 = mul i32 %13, 4, !dbg !2960
  %15 = call i8* @_Znwj(i32 %14), !dbg !2961
  %16 = bitcast i8* %15 to float*, !dbg !2962
  ret float* %16, !dbg !2963
}

; Function Attrs: nounwind
define linkonce_odr i32 @_ZNK9__gnu_cxx13new_allocatorIfE8max_sizeEv(%"class.__gnu_cxx::new_allocator.1"*) #4 comdat align 2 !dbg !2964 !xidane.fname !2877 !xidane.function_declaration_type !2878 !xidane.function_declaration_filename !2264 {
  %2 = alloca %"class.__gnu_cxx::new_allocator.1"*, align 4
  store %"class.__gnu_cxx::new_allocator.1"* %0, %"class.__gnu_cxx::new_allocator.1"** %2, align 4
  call void @llvm.dbg.declare(metadata %"class.__gnu_cxx::new_allocator.1"** %2, metadata !2965, metadata !1650), !dbg !2967
  %3 = load %"class.__gnu_cxx::new_allocator.1"*, %"class.__gnu_cxx::new_allocator.1"** %2, align 4
  ret i32 1073741823, !dbg !2968
}

; Function Attrs: nounwind
define linkonce_odr i32 @_ZNSt15_Deque_iteratorIfRfPfE14_S_buffer_sizeEv() #4 comdat align 2 personality i8* bitcast (i32 (...)* @__gxx_personality_v0 to i8*) !dbg !2969 !xidane.fname !2970 !xidane.function_declaration_type !2971 !xidane.function_declaration_filename !2137 {
  %1 = invoke i32 @_ZSt16__deque_buf_sizej(i32 4)
          to label %2 unwind label %3, !dbg !2972

; <label>:2:                                      ; preds = %0
  ret i32 %1, !dbg !2973

; <label>:3:                                      ; preds = %0
  %4 = landingpad { i8*, i32 }
          catch i8* null, !dbg !2975
  %5 = extractvalue { i8*, i32 } %4, 0, !dbg !2975
  call void @__clang_call_terminate(i8* %5) #14, !dbg !2975
  unreachable, !dbg !2975
}

define linkonce_odr void @_ZNSt16allocator_traitsISaIfEE10deallocateERS0_Pfj(%"class.std::allocator.0"* dereferenceable(1), float*, i32) #0 comdat align 2 !dbg !2977 !xidane.fname !2893 !xidane.function_declaration_type !2894 !xidane.function_declaration_filename !2180 {
  %4 = alloca %"class.std::allocator.0"*, align 4
  %5 = alloca float*, align 4
  %6 = alloca i32, align 4
  store %"class.std::allocator.0"* %0, %"class.std::allocator.0"** %4, align 4
  call void @llvm.dbg.declare(metadata %"class.std::allocator.0"** %4, metadata !2978, metadata !1650), !dbg !2979
  store float* %1, float** %5, align 4
  call void @llvm.dbg.declare(metadata float** %5, metadata !2980, metadata !1650), !dbg !2981
  store i32 %2, i32* %6, align 4
  call void @llvm.dbg.declare(metadata i32* %6, metadata !2982, metadata !1650), !dbg !2983
  %7 = load %"class.std::allocator.0"*, %"class.std::allocator.0"** %4, align 4, !dbg !2984
  %8 = bitcast %"class.std::allocator.0"* %7 to %"class.__gnu_cxx::new_allocator.1"*, !dbg !2984
  %9 = load float*, float** %5, align 4, !dbg !2985
  %10 = load i32, i32* %6, align 4, !dbg !2986
  call void @_ZN9__gnu_cxx13new_allocatorIfE10deallocateEPfj(%"class.__gnu_cxx::new_allocator.1"* %8, float* %9, i32 %10), !dbg !2987
  ret void, !dbg !2988
}

; Function Attrs: nounwind
define linkonce_odr void @_ZN9__gnu_cxx13new_allocatorIfE10deallocateEPfj(%"class.__gnu_cxx::new_allocator.1"*, float*, i32) #4 comdat align 2 !dbg !2989 !xidane.fname !2893 !xidane.function_declaration_type !2907 !xidane.function_declaration_filename !2264 {
  %4 = alloca %"class.__gnu_cxx::new_allocator.1"*, align 4
  %5 = alloca float*, align 4
  %6 = alloca i32, align 4
  store %"class.__gnu_cxx::new_allocator.1"* %0, %"class.__gnu_cxx::new_allocator.1"** %4, align 4
  call void @llvm.dbg.declare(metadata %"class.__gnu_cxx::new_allocator.1"** %4, metadata !2990, metadata !1650), !dbg !2991
  store float* %1, float** %5, align 4
  call void @llvm.dbg.declare(metadata float** %5, metadata !2992, metadata !1650), !dbg !2993
  store i32 %2, i32* %6, align 4
  call void @llvm.dbg.declare(metadata i32* %6, metadata !2994, metadata !1650), !dbg !2995
  %7 = load %"class.__gnu_cxx::new_allocator.1"*, %"class.__gnu_cxx::new_allocator.1"** %4, align 4
  %8 = load float*, float** %5, align 4, !dbg !2996
  %9 = bitcast float* %8 to i8*, !dbg !2996
  call void @_ZdlPv(i8* %9) #3, !dbg !2997
  ret void, !dbg !2998
}

; Function Attrs: nounwind
define linkonce_odr zeroext i1 @_ZNKSt5dequeIfSaIfEE5emptyEv(%"class.std::deque"*) #4 comdat align 2 !dbg !2999 !xidane.fname !3000 !xidane.function_declaration_type !3001 !xidane.function_declaration_filename !2137 {
  %2 = alloca %"class.std::deque"*, align 4
  store %"class.std::deque"* %0, %"class.std::deque"** %2, align 4
  call void @llvm.dbg.declare(metadata %"class.std::deque"** %2, metadata !3002, metadata !1650), !dbg !3004
  %3 = load %"class.std::deque"*, %"class.std::deque"** %2, align 4
  %4 = bitcast %"class.std::deque"* %3 to %"class.std::_Deque_base"*, !dbg !3005
  %5 = getelementptr inbounds %"class.std::_Deque_base", %"class.std::_Deque_base"* %4, i32 0, i32 0, !dbg !3005
  %6 = getelementptr inbounds %"struct.std::_Deque_base<float, std::allocator<float> >::_Deque_impl", %"struct.std::_Deque_base<float, std::allocator<float> >::_Deque_impl"* %5, i32 0, i32 3, !dbg !3006
  %7 = bitcast %"class.std::deque"* %3 to %"class.std::_Deque_base"*, !dbg !3007
  %8 = getelementptr inbounds %"class.std::_Deque_base", %"class.std::_Deque_base"* %7, i32 0, i32 0, !dbg !3007
  %9 = getelementptr inbounds %"struct.std::_Deque_base<float, std::allocator<float> >::_Deque_impl", %"struct.std::_Deque_base<float, std::allocator<float> >::_Deque_impl"* %8, i32 0, i32 2, !dbg !3008
  %10 = call zeroext i1 @_ZSteqIfRfPfEbRKSt15_Deque_iteratorIT_T0_T1_ES8_(%"struct.std::_Deque_iterator"* dereferenceable(16) %6, %"struct.std::_Deque_iterator"* dereferenceable(16) %9) #3, !dbg !3009
  ret i1 %10, !dbg !3010
}

declare !xidane.fname !3011 !xidane.function_declaration_type !3012 !xidane.function_declaration_filename !3013 dereferenceable(140) %"class.std::basic_ostream"* @_ZStlsISt11char_traitsIcEERSt13basic_ostreamIcT_ES5_PKc(%"class.std::basic_ostream"* dereferenceable(140), i8*) #1

declare !xidane.fname !3011 !xidane.function_declaration_type !3014 !xidane.function_declaration_filename !3015 dereferenceable(140) %"class.std::basic_ostream"* @_ZStlsIcSt11char_traitsIcESaIcEERSt13basic_ostreamIT_T0_ES7_RKNSt7__cxx1112basic_stringIS4_S5_T1_EE(%"class.std::basic_ostream"* dereferenceable(140), %"class.std::__cxx11::basic_string"* dereferenceable(24)) #1

declare !xidane.fname !1854 !xidane.function_declaration_type !3016 !xidane.function_declaration_filename !3013 dereferenceable(140) %"class.std::basic_ostream"* @_ZNSolsEPFRSoS_E(%"class.std::basic_ostream"*, %"class.std::basic_ostream"* (%"class.std::basic_ostream"*)*) #1

declare !xidane.fname !3017 !xidane.function_declaration_type !3018 !xidane.function_declaration_filename !3013 dereferenceable(140) %"class.std::basic_ostream"* @_ZSt4endlIcSt11char_traitsIcEERSt13basic_ostreamIT_T0_ES6_(%"class.std::basic_ostream"* dereferenceable(140)) #1

; Function Attrs: nounwind
define linkonce_odr dereferenceable(4) float* @_ZNSt5dequeIfSaIfEE5frontEv(%"class.std::deque"*) #4 comdat align 2 !dbg !3019 !xidane.fname !3020 !xidane.function_declaration_type !3021 !xidane.function_declaration_filename !2137 {
  %2 = alloca %"class.std::deque"*, align 4
  %3 = alloca %"struct.std::_Deque_iterator", align 4
  store %"class.std::deque"* %0, %"class.std::deque"** %2, align 4
  call void @llvm.dbg.declare(metadata %"class.std::deque"** %2, metadata !3022, metadata !1650), !dbg !3023
  %4 = load %"class.std::deque"*, %"class.std::deque"** %2, align 4
  call void @_ZNSt5dequeIfSaIfEE5beginEv(%"struct.std::_Deque_iterator"* sret %3, %"class.std::deque"* %4) #3, !dbg !3024
  %5 = call dereferenceable(4) float* @_ZNKSt15_Deque_iteratorIfRfPfEdeEv(%"struct.std::_Deque_iterator"* %3) #3, !dbg !3025
  ret float* %5, !dbg !3027
}

; Function Attrs: nounwind
define linkonce_odr void @_ZNSt5dequeIfSaIfEE9pop_frontEv(%"class.std::deque"*) #4 comdat align 2 personality i8* bitcast (i32 (...)* @__gxx_personality_v0 to i8*) !dbg !3028 !xidane.fname !3029 !xidane.function_declaration_type !1636 !xidane.function_declaration_filename !2137 {
  %2 = alloca %"class.std::deque"*, align 4
  store %"class.std::deque"* %0, %"class.std::deque"** %2, align 4
  call void @llvm.dbg.declare(metadata %"class.std::deque"** %2, metadata !3030, metadata !1650), !dbg !3031
  %3 = load %"class.std::deque"*, %"class.std::deque"** %2, align 4
  %4 = bitcast %"class.std::deque"* %3 to %"class.std::_Deque_base"*, !dbg !3032
  %5 = getelementptr inbounds %"class.std::_Deque_base", %"class.std::_Deque_base"* %4, i32 0, i32 0, !dbg !3032
  %6 = getelementptr inbounds %"struct.std::_Deque_base<float, std::allocator<float> >::_Deque_impl", %"struct.std::_Deque_base<float, std::allocator<float> >::_Deque_impl"* %5, i32 0, i32 2, !dbg !3034
  %7 = getelementptr inbounds %"struct.std::_Deque_iterator", %"struct.std::_Deque_iterator"* %6, i32 0, i32 0, !dbg !3035
  %8 = load float*, float** %7, align 4, !dbg !3035
  %9 = bitcast %"class.std::deque"* %3 to %"class.std::_Deque_base"*, !dbg !3036
  %10 = getelementptr inbounds %"class.std::_Deque_base", %"class.std::_Deque_base"* %9, i32 0, i32 0, !dbg !3036
  %11 = getelementptr inbounds %"struct.std::_Deque_base<float, std::allocator<float> >::_Deque_impl", %"struct.std::_Deque_base<float, std::allocator<float> >::_Deque_impl"* %10, i32 0, i32 2, !dbg !3037
  %12 = getelementptr inbounds %"struct.std::_Deque_iterator", %"struct.std::_Deque_iterator"* %11, i32 0, i32 2, !dbg !3038
  %13 = load float*, float** %12, align 4, !dbg !3038
  %14 = getelementptr inbounds float, float* %13, i32 -1, !dbg !3039
  %15 = icmp ne float* %8, %14, !dbg !3040
  br i1 %15, label %16, label %32, !dbg !3041

; <label>:16:                                     ; preds = %1
  %17 = bitcast %"class.std::deque"* %3 to %"class.std::_Deque_base"*, !dbg !3042
  %18 = getelementptr inbounds %"class.std::_Deque_base", %"class.std::_Deque_base"* %17, i32 0, i32 0, !dbg !3042
  %19 = bitcast %"struct.std::_Deque_base<float, std::allocator<float> >::_Deque_impl"* %18 to %"class.std::allocator.0"*, !dbg !3044
  %20 = bitcast %"class.std::deque"* %3 to %"class.std::_Deque_base"*, !dbg !3045
  %21 = getelementptr inbounds %"class.std::_Deque_base", %"class.std::_Deque_base"* %20, i32 0, i32 0, !dbg !3045
  %22 = getelementptr inbounds %"struct.std::_Deque_base<float, std::allocator<float> >::_Deque_impl", %"struct.std::_Deque_base<float, std::allocator<float> >::_Deque_impl"* %21, i32 0, i32 2, !dbg !3046
  %23 = getelementptr inbounds %"struct.std::_Deque_iterator", %"struct.std::_Deque_iterator"* %22, i32 0, i32 0, !dbg !3047
  %24 = load float*, float** %23, align 4, !dbg !3047
  invoke void @_ZNSt16allocator_traitsISaIfEE7destroyIfEEvRS0_PT_(%"class.std::allocator.0"* dereferenceable(1) %19, float* %24)
          to label %25 unwind label %35, !dbg !3048

; <label>:25:                                     ; preds = %16
  %26 = bitcast %"class.std::deque"* %3 to %"class.std::_Deque_base"*, !dbg !3049
  %27 = getelementptr inbounds %"class.std::_Deque_base", %"class.std::_Deque_base"* %26, i32 0, i32 0, !dbg !3049
  %28 = getelementptr inbounds %"struct.std::_Deque_base<float, std::allocator<float> >::_Deque_impl", %"struct.std::_Deque_base<float, std::allocator<float> >::_Deque_impl"* %27, i32 0, i32 2, !dbg !3050
  %29 = getelementptr inbounds %"struct.std::_Deque_iterator", %"struct.std::_Deque_iterator"* %28, i32 0, i32 0, !dbg !3051
  %30 = load float*, float** %29, align 4, !dbg !3052
  %31 = getelementptr inbounds float, float* %30, i32 1, !dbg !3052
  store float* %31, float** %29, align 4, !dbg !3052
  br label %34, !dbg !3053

; <label>:32:                                     ; preds = %1
  invoke void @_ZNSt5dequeIfSaIfEE16_M_pop_front_auxEv(%"class.std::deque"* %3)
          to label %33 unwind label %35, !dbg !3054

; <label>:33:                                     ; preds = %32
  br label %34

; <label>:34:                                     ; preds = %33, %25
  ret void, !dbg !3055

; <label>:35:                                     ; preds = %32, %16
  %36 = landingpad { i8*, i32 }
          catch i8* null, !dbg !3056
  %37 = extractvalue { i8*, i32 } %36, 0, !dbg !3056
  call void @__clang_call_terminate(i8* %37) #14, !dbg !3056
  unreachable, !dbg !3056
}

; Function Attrs: inlinehint nounwind
define linkonce_odr zeroext i1 @_ZSteqIfRfPfEbRKSt15_Deque_iteratorIT_T0_T1_ES8_(%"struct.std::_Deque_iterator"* dereferenceable(16), %"struct.std::_Deque_iterator"* dereferenceable(16)) #8 comdat !dbg !3058 !xidane.fname !3062 !xidane.function_declaration_type !3063 !xidane.function_declaration_filename !2137 {
  %3 = alloca %"struct.std::_Deque_iterator"*, align 4
  %4 = alloca %"struct.std::_Deque_iterator"*, align 4
  store %"struct.std::_Deque_iterator"* %0, %"struct.std::_Deque_iterator"** %3, align 4
  call void @llvm.dbg.declare(metadata %"struct.std::_Deque_iterator"** %3, metadata !3064, metadata !1650), !dbg !3065
  store %"struct.std::_Deque_iterator"* %1, %"struct.std::_Deque_iterator"** %4, align 4
  call void @llvm.dbg.declare(metadata %"struct.std::_Deque_iterator"** %4, metadata !3066, metadata !1650), !dbg !3067
  %5 = load %"struct.std::_Deque_iterator"*, %"struct.std::_Deque_iterator"** %3, align 4, !dbg !3068
  %6 = getelementptr inbounds %"struct.std::_Deque_iterator", %"struct.std::_Deque_iterator"* %5, i32 0, i32 0, !dbg !3069
  %7 = load float*, float** %6, align 4, !dbg !3069
  %8 = load %"struct.std::_Deque_iterator"*, %"struct.std::_Deque_iterator"** %4, align 4, !dbg !3070
  %9 = getelementptr inbounds %"struct.std::_Deque_iterator", %"struct.std::_Deque_iterator"* %8, i32 0, i32 0, !dbg !3071
  %10 = load float*, float** %9, align 4, !dbg !3071
  %11 = icmp eq float* %7, %10, !dbg !3072
  ret i1 %11, !dbg !3073
}

; Function Attrs: nounwind
define linkonce_odr void @_ZNSt5dequeIfSaIfEE5beginEv(%"struct.std::_Deque_iterator"* noalias sret, %"class.std::deque"*) #4 comdat align 2 !dbg !3074 !xidane.fname !3075 !xidane.function_declaration_type !3076 !xidane.function_declaration_filename !2137 {
  %3 = alloca %"class.std::deque"*, align 4
  store %"class.std::deque"* %1, %"class.std::deque"** %3, align 4
  call void @llvm.dbg.declare(metadata %"class.std::deque"** %3, metadata !3077, metadata !1650), !dbg !3078
  %4 = load %"class.std::deque"*, %"class.std::deque"** %3, align 4
  %5 = bitcast %"class.std::deque"* %4 to %"class.std::_Deque_base"*, !dbg !3079
  %6 = getelementptr inbounds %"class.std::_Deque_base", %"class.std::_Deque_base"* %5, i32 0, i32 0, !dbg !3079
  %7 = getelementptr inbounds %"struct.std::_Deque_base<float, std::allocator<float> >::_Deque_impl", %"struct.std::_Deque_base<float, std::allocator<float> >::_Deque_impl"* %6, i32 0, i32 2, !dbg !3080
  %8 = call %"struct.std::_Deque_iterator"* @_ZNSt15_Deque_iteratorIfRfPfEC2ERKS2_(%"struct.std::_Deque_iterator"* %0, %"struct.std::_Deque_iterator"* dereferenceable(16) %7) #3, !dbg !3081
  ret void, !dbg !3082
}

; Function Attrs: nounwind
define linkonce_odr dereferenceable(4) float* @_ZNKSt15_Deque_iteratorIfRfPfEdeEv(%"struct.std::_Deque_iterator"*) #4 comdat align 2 !dbg !3083 !xidane.fname !3084 !xidane.function_declaration_type !3021 !xidane.function_declaration_filename !2137 {
  %2 = alloca %"struct.std::_Deque_iterator"*, align 4
  store %"struct.std::_Deque_iterator"* %0, %"struct.std::_Deque_iterator"** %2, align 4
  call void @llvm.dbg.declare(metadata %"struct.std::_Deque_iterator"** %2, metadata !3085, metadata !1650), !dbg !3087
  %3 = load %"struct.std::_Deque_iterator"*, %"struct.std::_Deque_iterator"** %2, align 4
  %4 = getelementptr inbounds %"struct.std::_Deque_iterator", %"struct.std::_Deque_iterator"* %3, i32 0, i32 0, !dbg !3088
  %5 = load float*, float** %4, align 4, !dbg !3088
  ret float* %5, !dbg !3089
}

; Function Attrs: nounwind
define linkonce_odr %"struct.std::_Deque_iterator"* @_ZNSt15_Deque_iteratorIfRfPfEC2ERKS2_(%"struct.std::_Deque_iterator"* returned, %"struct.std::_Deque_iterator"* dereferenceable(16)) unnamed_addr #4 comdat align 2 !dbg !3090 !xidane.fname !3091 !xidane.function_declaration_type !3092 !xidane.function_declaration_filename !2137 {
  %3 = alloca %"struct.std::_Deque_iterator"*, align 4
  %4 = alloca %"struct.std::_Deque_iterator"*, align 4
  store %"struct.std::_Deque_iterator"* %0, %"struct.std::_Deque_iterator"** %3, align 4
  call void @llvm.dbg.declare(metadata %"struct.std::_Deque_iterator"** %3, metadata !3093, metadata !1650), !dbg !3094
  store %"struct.std::_Deque_iterator"* %1, %"struct.std::_Deque_iterator"** %4, align 4
  call void @llvm.dbg.declare(metadata %"struct.std::_Deque_iterator"** %4, metadata !3095, metadata !1650), !dbg !3096
  %5 = load %"struct.std::_Deque_iterator"*, %"struct.std::_Deque_iterator"** %3, align 4
  %6 = getelementptr inbounds %"struct.std::_Deque_iterator", %"struct.std::_Deque_iterator"* %5, i32 0, i32 0, !dbg !3097
  %7 = load %"struct.std::_Deque_iterator"*, %"struct.std::_Deque_iterator"** %4, align 4, !dbg !3098
  %8 = getelementptr inbounds %"struct.std::_Deque_iterator", %"struct.std::_Deque_iterator"* %7, i32 0, i32 0, !dbg !3099
  %9 = load float*, float** %8, align 4, !dbg !3099
  store float* %9, float** %6, align 4, !dbg !3097
  %10 = getelementptr inbounds %"struct.std::_Deque_iterator", %"struct.std::_Deque_iterator"* %5, i32 0, i32 1, !dbg !3100
  %11 = load %"struct.std::_Deque_iterator"*, %"struct.std::_Deque_iterator"** %4, align 4, !dbg !3101
  %12 = getelementptr inbounds %"struct.std::_Deque_iterator", %"struct.std::_Deque_iterator"* %11, i32 0, i32 1, !dbg !3102
  %13 = load float*, float** %12, align 4, !dbg !3102
  store float* %13, float** %10, align 4, !dbg !3100
  %14 = getelementptr inbounds %"struct.std::_Deque_iterator", %"struct.std::_Deque_iterator"* %5, i32 0, i32 2, !dbg !3103
  %15 = load %"struct.std::_Deque_iterator"*, %"struct.std::_Deque_iterator"** %4, align 4, !dbg !3104
  %16 = getelementptr inbounds %"struct.std::_Deque_iterator", %"struct.std::_Deque_iterator"* %15, i32 0, i32 2, !dbg !3105
  %17 = load float*, float** %16, align 4, !dbg !3105
  store float* %17, float** %14, align 4, !dbg !3103
  %18 = getelementptr inbounds %"struct.std::_Deque_iterator", %"struct.std::_Deque_iterator"* %5, i32 0, i32 3, !dbg !3106
  %19 = load %"struct.std::_Deque_iterator"*, %"struct.std::_Deque_iterator"** %4, align 4, !dbg !3107
  %20 = getelementptr inbounds %"struct.std::_Deque_iterator", %"struct.std::_Deque_iterator"* %19, i32 0, i32 3, !dbg !3108
  %21 = load float**, float*** %20, align 4, !dbg !3108
  store float** %21, float*** %18, align 4, !dbg !3106
  ret %"struct.std::_Deque_iterator"* %5, !dbg !3109
}

define linkonce_odr void @_ZNSt16allocator_traitsISaIfEE7destroyIfEEvRS0_PT_(%"class.std::allocator.0"* dereferenceable(1), float*) #0 comdat align 2 !dbg !3110 !xidane.fname !3115 !xidane.function_declaration_type !3116 !xidane.function_declaration_filename !2180 {
  %3 = alloca %"class.std::allocator.0"*, align 4
  %4 = alloca float*, align 4
  store %"class.std::allocator.0"* %0, %"class.std::allocator.0"** %3, align 4
  call void @llvm.dbg.declare(metadata %"class.std::allocator.0"** %3, metadata !3117, metadata !1650), !dbg !3118
  store float* %1, float** %4, align 4
  call void @llvm.dbg.declare(metadata float** %4, metadata !3119, metadata !1650), !dbg !3120
  %5 = load %"class.std::allocator.0"*, %"class.std::allocator.0"** %3, align 4, !dbg !3121
  %6 = bitcast %"class.std::allocator.0"* %5 to %"class.__gnu_cxx::new_allocator.1"*, !dbg !3121
  %7 = load float*, float** %4, align 4, !dbg !3122
  call void @_ZN9__gnu_cxx13new_allocatorIfE7destroyIfEEvPT_(%"class.__gnu_cxx::new_allocator.1"* %6, float* %7), !dbg !3123
  ret void, !dbg !3124
}

define linkonce_odr void @_ZNSt5dequeIfSaIfEE16_M_pop_front_auxEv(%"class.std::deque"*) #0 comdat align 2 !dbg !3125 !xidane.fname !3126 !xidane.function_declaration_type !1636 !xidane.function_declaration_filename !2137 {
  %2 = alloca %"class.std::deque"*, align 4
  store %"class.std::deque"* %0, %"class.std::deque"** %2, align 4
  call void @llvm.dbg.declare(metadata %"class.std::deque"** %2, metadata !3127, metadata !1650), !dbg !3128
  %3 = load %"class.std::deque"*, %"class.std::deque"** %2, align 4
  %4 = bitcast %"class.std::deque"* %3 to %"class.std::_Deque_base"*, !dbg !3129
  %5 = call dereferenceable(1) %"class.std::allocator.0"* @_ZNSt11_Deque_baseIfSaIfEE19_M_get_Tp_allocatorEv(%"class.std::_Deque_base"* %4) #3, !dbg !3129
  %6 = bitcast %"class.std::deque"* %3 to %"class.std::_Deque_base"*, !dbg !3130
  %7 = getelementptr inbounds %"class.std::_Deque_base", %"class.std::_Deque_base"* %6, i32 0, i32 0, !dbg !3130
  %8 = getelementptr inbounds %"struct.std::_Deque_base<float, std::allocator<float> >::_Deque_impl", %"struct.std::_Deque_base<float, std::allocator<float> >::_Deque_impl"* %7, i32 0, i32 2, !dbg !3131
  %9 = getelementptr inbounds %"struct.std::_Deque_iterator", %"struct.std::_Deque_iterator"* %8, i32 0, i32 0, !dbg !3132
  %10 = load float*, float** %9, align 4, !dbg !3132
  call void @_ZNSt16allocator_traitsISaIfEE7destroyIfEEvRS0_PT_(%"class.std::allocator.0"* dereferenceable(1) %5, float* %10), !dbg !3133
  %11 = bitcast %"class.std::deque"* %3 to %"class.std::_Deque_base"*, !dbg !3135
  %12 = bitcast %"class.std::deque"* %3 to %"class.std::_Deque_base"*, !dbg !3136
  %13 = getelementptr inbounds %"class.std::_Deque_base", %"class.std::_Deque_base"* %12, i32 0, i32 0, !dbg !3136
  %14 = getelementptr inbounds %"struct.std::_Deque_base<float, std::allocator<float> >::_Deque_impl", %"struct.std::_Deque_base<float, std::allocator<float> >::_Deque_impl"* %13, i32 0, i32 2, !dbg !3137
  %15 = getelementptr inbounds %"struct.std::_Deque_iterator", %"struct.std::_Deque_iterator"* %14, i32 0, i32 1, !dbg !3138
  %16 = load float*, float** %15, align 4, !dbg !3138
  call void @_ZNSt11_Deque_baseIfSaIfEE18_M_deallocate_nodeEPf(%"class.std::_Deque_base"* %11, float* %16) #3, !dbg !3135
  %17 = bitcast %"class.std::deque"* %3 to %"class.std::_Deque_base"*, !dbg !3139
  %18 = getelementptr inbounds %"class.std::_Deque_base", %"class.std::_Deque_base"* %17, i32 0, i32 0, !dbg !3139
  %19 = getelementptr inbounds %"struct.std::_Deque_base<float, std::allocator<float> >::_Deque_impl", %"struct.std::_Deque_base<float, std::allocator<float> >::_Deque_impl"* %18, i32 0, i32 2, !dbg !3140
  %20 = bitcast %"class.std::deque"* %3 to %"class.std::_Deque_base"*, !dbg !3141
  %21 = getelementptr inbounds %"class.std::_Deque_base", %"class.std::_Deque_base"* %20, i32 0, i32 0, !dbg !3141
  %22 = getelementptr inbounds %"struct.std::_Deque_base<float, std::allocator<float> >::_Deque_impl", %"struct.std::_Deque_base<float, std::allocator<float> >::_Deque_impl"* %21, i32 0, i32 2, !dbg !3142
  %23 = getelementptr inbounds %"struct.std::_Deque_iterator", %"struct.std::_Deque_iterator"* %22, i32 0, i32 3, !dbg !3143
  %24 = load float**, float*** %23, align 4, !dbg !3143
  %25 = getelementptr inbounds float*, float** %24, i32 1, !dbg !3144
  call void @_ZNSt15_Deque_iteratorIfRfPfE11_M_set_nodeEPS1_(%"struct.std::_Deque_iterator"* %19, float** %25) #3, !dbg !3145
  %26 = bitcast %"class.std::deque"* %3 to %"class.std::_Deque_base"*, !dbg !3146
  %27 = getelementptr inbounds %"class.std::_Deque_base", %"class.std::_Deque_base"* %26, i32 0, i32 0, !dbg !3146
  %28 = getelementptr inbounds %"struct.std::_Deque_base<float, std::allocator<float> >::_Deque_impl", %"struct.std::_Deque_base<float, std::allocator<float> >::_Deque_impl"* %27, i32 0, i32 2, !dbg !3147
  %29 = getelementptr inbounds %"struct.std::_Deque_iterator", %"struct.std::_Deque_iterator"* %28, i32 0, i32 1, !dbg !3148
  %30 = load float*, float** %29, align 4, !dbg !3148
  %31 = bitcast %"class.std::deque"* %3 to %"class.std::_Deque_base"*, !dbg !3149
  %32 = getelementptr inbounds %"class.std::_Deque_base", %"class.std::_Deque_base"* %31, i32 0, i32 0, !dbg !3149
  %33 = getelementptr inbounds %"struct.std::_Deque_base<float, std::allocator<float> >::_Deque_impl", %"struct.std::_Deque_base<float, std::allocator<float> >::_Deque_impl"* %32, i32 0, i32 2, !dbg !3150
  %34 = getelementptr inbounds %"struct.std::_Deque_iterator", %"struct.std::_Deque_iterator"* %33, i32 0, i32 0, !dbg !3151
  store float* %30, float** %34, align 4, !dbg !3152
  ret void, !dbg !3153
}

; Function Attrs: nounwind
define linkonce_odr void @_ZN9__gnu_cxx13new_allocatorIfE7destroyIfEEvPT_(%"class.__gnu_cxx::new_allocator.1"*, float*) #4 comdat align 2 !dbg !3154 !xidane.fname !3158 !xidane.function_declaration_type !3159 !xidane.function_declaration_filename !2264 {
  %3 = alloca %"class.__gnu_cxx::new_allocator.1"*, align 4
  %4 = alloca float*, align 4
  store %"class.__gnu_cxx::new_allocator.1"* %0, %"class.__gnu_cxx::new_allocator.1"** %3, align 4
  call void @llvm.dbg.declare(metadata %"class.__gnu_cxx::new_allocator.1"** %3, metadata !3160, metadata !1650), !dbg !3161
  store float* %1, float** %4, align 4
  call void @llvm.dbg.declare(metadata float** %4, metadata !3162, metadata !1650), !dbg !3163
  %5 = load %"class.__gnu_cxx::new_allocator.1"*, %"class.__gnu_cxx::new_allocator.1"** %3, align 4
  %6 = load float*, float** %4, align 4, !dbg !3164
  ret void, !dbg !3165
}

; Function Attrs: nounwind
define linkonce_odr dereferenceable(1) %"class.std::allocator.0"* @_ZNSt11_Deque_baseIfSaIfEE19_M_get_Tp_allocatorEv(%"class.std::_Deque_base"*) #4 comdat align 2 !dbg !3166 !xidane.fname !2829 !xidane.function_declaration_type !3167 !xidane.function_declaration_filename !2137 {
  %2 = alloca %"class.std::_Deque_base"*, align 4
  store %"class.std::_Deque_base"* %0, %"class.std::_Deque_base"** %2, align 4
  call void @llvm.dbg.declare(metadata %"class.std::_Deque_base"** %2, metadata !3168, metadata !1650), !dbg !3169
  %3 = load %"class.std::_Deque_base"*, %"class.std::_Deque_base"** %2, align 4
  %4 = getelementptr inbounds %"class.std::_Deque_base", %"class.std::_Deque_base"* %3, i32 0, i32 0, !dbg !3170
  %5 = bitcast %"struct.std::_Deque_base<float, std::allocator<float> >::_Deque_impl"* %4 to %"class.std::allocator.0"*, !dbg !3171
  ret %"class.std::allocator.0"* %5, !dbg !3172
}

; Function Attrs: nounwind
declare !xidane.fname !3173 !xidane.function_declaration_type !1636 !xidane.function_declaration_filename !3015 %"class.std::__cxx11::basic_string"* @_ZNSt7__cxx1112basic_stringIcSt11char_traitsIcESaIcEEC1Ev(%"class.std::__cxx11::basic_string"* returned) unnamed_addr #2

define linkonce_odr %"class.std::deque"* @_ZNSt5dequeIfSaIfEEC2Ev(%"class.std::deque"* returned) unnamed_addr #0 comdat align 2 !dbg !3174 !xidane.fname !3175 !xidane.function_declaration_type !1636 !xidane.function_declaration_filename !2137 {
  %2 = alloca %"class.std::deque"*, align 4
  store %"class.std::deque"* %0, %"class.std::deque"** %2, align 4
  call void @llvm.dbg.declare(metadata %"class.std::deque"** %2, metadata !3176, metadata !1650), !dbg !3177
  %3 = load %"class.std::deque"*, %"class.std::deque"** %2, align 4
  %4 = bitcast %"class.std::deque"* %3 to %"class.std::_Deque_base"*, !dbg !3178
  %5 = call %"class.std::_Deque_base"* @_ZNSt11_Deque_baseIfSaIfEEC2Ev(%"class.std::_Deque_base"* %4), !dbg !3179
  ret %"class.std::deque"* %3, !dbg !3180
}

; Function Attrs: inlinehint nounwind
define linkonce_odr i32 @_ZStorSt13_Ios_OpenmodeS_(i32, i32) #8 comdat !dbg !3181 !xidane.fname !3184 !xidane.function_declaration_type !3185 !xidane.function_declaration_filename !1637 {
  %3 = alloca i32, align 4
  %4 = alloca i32, align 4
  store i32 %0, i32* %3, align 4
  call void @llvm.dbg.declare(metadata i32* %3, metadata !3186, metadata !1650), !dbg !3187
  store i32 %1, i32* %4, align 4
  call void @llvm.dbg.declare(metadata i32* %4, metadata !3188, metadata !1650), !dbg !3189
  %5 = load i32, i32* %3, align 4, !dbg !3190
  %6 = load i32, i32* %4, align 4, !dbg !3191
  %7 = or i32 %5, %6, !dbg !3192
  ret i32 %7, !dbg !3193
}

declare !xidane.fname !3194 !xidane.function_declaration_type !3195 !xidane.function_declaration_filename !3196 %"class.std::__cxx11::basic_stringstream"* @_ZNSt7__cxx1118basic_stringstreamIcSt11char_traitsIcESaIcEEC1ESt13_Ios_Openmode(%"class.std::__cxx11::basic_stringstream"* returned, i32) unnamed_addr #1

declare !xidane.fname !3197 !xidane.function_declaration_type !3198 !xidane.function_declaration_filename !3199 !xidane.ExternC !2096 i8* @__cxa_demangle(i8*, i8*, i32*, i32*) #1

declare void @__cxa_bad_typeid()

; Function Attrs: nounwind
define linkonce_odr i8* @_ZNKSt9type_info4nameEv(%"class.std::type_info"*) #4 comdat align 2 !dbg !3200 !xidane.fname !3205 !xidane.function_declaration_type !3206 !xidane.function_declaration_filename !3207 {
  %2 = alloca %"class.std::type_info"*, align 4
  store %"class.std::type_info"* %0, %"class.std::type_info"** %2, align 4
  call void @llvm.dbg.declare(metadata %"class.std::type_info"** %2, metadata !3208, metadata !1650), !dbg !3209
  %3 = load %"class.std::type_info"*, %"class.std::type_info"** %2, align 4
  %4 = getelementptr inbounds %"class.std::type_info", %"class.std::type_info"* %3, i32 0, i32 1, !dbg !3210
  %5 = load i8*, i8** %4, align 4, !dbg !3210
  %6 = getelementptr inbounds i8, i8* %5, i32 0, !dbg !3210
  %7 = load i8, i8* %6, align 1, !dbg !3210
  %8 = zext i8 %7 to i32, !dbg !3210
  %9 = icmp eq i32 %8, 42, !dbg !3211
  br i1 %9, label %10, label %14, !dbg !3210

; <label>:10:                                     ; preds = %1
  %11 = getelementptr inbounds %"class.std::type_info", %"class.std::type_info"* %3, i32 0, i32 1, !dbg !3212
  %12 = load i8*, i8** %11, align 4, !dbg !3212
  %13 = getelementptr inbounds i8, i8* %12, i32 1, !dbg !3214
  br label %17, !dbg !3215

; <label>:14:                                     ; preds = %1
  %15 = getelementptr inbounds %"class.std::type_info", %"class.std::type_info"* %3, i32 0, i32 1, !dbg !3216
  %16 = load i8*, i8** %15, align 4, !dbg !3216
  br label %17, !dbg !3218

; <label>:17:                                     ; preds = %14, %10
  %18 = phi i8* [ %13, %10 ], [ %16, %14 ], !dbg !3219
  ret i8* %18, !dbg !3221
}

declare !xidane.fname !3222 !xidane.function_declaration_type !3223 !xidane.function_declaration_filename !3015 dereferenceable(24) %"class.std::__cxx11::basic_string"* @_ZNSt7__cxx1112basic_stringIcSt11char_traitsIcESaIcEEaSEPKc(%"class.std::__cxx11::basic_string"*, i8*) #1

; Function Attrs: nounwind
declare !xidane.fname !3224 !xidane.function_declaration_type !2918 !xidane.function_declaration_filename !3225 !xidane.ExternC !2096 void @free(i8*) #2

declare !xidane.fname !1854 !xidane.function_declaration_type !3226 !xidane.function_declaration_filename !3013 dereferenceable(140) %"class.std::basic_ostream"* @_ZNSolsEj(%"class.std::basic_ostream"*, i32) #1

declare !xidane.fname !3227 !xidane.function_declaration_type !3228 !xidane.function_declaration_filename !3015 dereferenceable(24) %"class.std::__cxx11::basic_string"* @_ZNSt7__cxx1112basic_stringIcSt11char_traitsIcESaIcEEpLERKS4_(%"class.std::__cxx11::basic_string"*, %"class.std::__cxx11::basic_string"* dereferenceable(24)) #1

; Function Attrs: inlinehint
define linkonce_odr void @_ZStplIcSt11char_traitsIcESaIcEENSt7__cxx1112basic_stringIT_T0_T1_EEPKS5_OS8_(%"class.std::__cxx11::basic_string"* noalias sret, i8*, %"class.std::__cxx11::basic_string"* dereferenceable(24)) #7 comdat !dbg !3229 !xidane.fname !3290 !xidane.function_declaration_type !3291 !xidane.function_declaration_filename !3015 {
  %4 = alloca i8*, align 4
  %5 = alloca %"class.std::__cxx11::basic_string"*, align 4
  store i8* %1, i8** %4, align 4
  call void @llvm.dbg.declare(metadata i8** %4, metadata !3292, metadata !1650), !dbg !3293
  store %"class.std::__cxx11::basic_string"* %2, %"class.std::__cxx11::basic_string"** %5, align 4
  call void @llvm.dbg.declare(metadata %"class.std::__cxx11::basic_string"** %5, metadata !3294, metadata !1650), !dbg !3295
  %6 = load %"class.std::__cxx11::basic_string"*, %"class.std::__cxx11::basic_string"** %5, align 4, !dbg !3296
  %7 = load i8*, i8** %4, align 4, !dbg !3297
  %8 = call dereferenceable(24) %"class.std::__cxx11::basic_string"* @_ZNSt7__cxx1112basic_stringIcSt11char_traitsIcESaIcEE6insertEjPKc(%"class.std::__cxx11::basic_string"* %6, i32 0, i8* %7), !dbg !3298
  %9 = call dereferenceable(24) %"class.std::__cxx11::basic_string"* @_ZSt4moveIRNSt7__cxx1112basic_stringIcSt11char_traitsIcESaIcEEEEONSt16remove_referenceIT_E4typeEOS8_(%"class.std::__cxx11::basic_string"* dereferenceable(24) %8) #3, !dbg !3299
  %10 = call %"class.std::__cxx11::basic_string"* @_ZNSt7__cxx1112basic_stringIcSt11char_traitsIcESaIcEEC1EOS4_(%"class.std::__cxx11::basic_string"* %0, %"class.std::__cxx11::basic_string"* dereferenceable(24) %9) #3, !dbg !3301
  ret void, !dbg !3303
}

declare !xidane.fname !3304 !xidane.function_declaration_type !3305 !xidane.function_declaration_filename !3196 void @_ZNKSt7__cxx1118basic_stringstreamIcSt11char_traitsIcESaIcEE3strEv(%"class.std::__cxx11::basic_string"* sret, %"class.std::__cxx11::basic_stringstream"*) #1

; Function Attrs: nounwind
declare !xidane.fname !3306 !xidane.function_declaration_type !1636 !xidane.function_declaration_filename !3015 %"class.std::__cxx11::basic_string"* @_ZNSt7__cxx1112basic_stringIcSt11char_traitsIcESaIcEED1Ev(%"class.std::__cxx11::basic_string"* returned) unnamed_addr #2

; Function Attrs: nounwind
declare !xidane.fname !3307 !xidane.function_declaration_type !1636 !xidane.function_declaration_filename !3196 %"class.std::__cxx11::basic_stringstream"* @_ZNSt7__cxx1118basic_stringstreamIcSt11char_traitsIcESaIcEED1Ev(%"class.std::__cxx11::basic_stringstream"* returned) unnamed_addr #2

; Function Attrs: nounwind
define linkonce_odr %"class.std::deque"* @_ZNSt5dequeIfSaIfEED2Ev(%"class.std::deque"* returned) unnamed_addr #4 comdat align 2 personality i8* bitcast (i32 (...)* @__gxx_personality_v0 to i8*) !dbg !3308 !xidane.fname !3309 !xidane.function_declaration_type !1636 !xidane.function_declaration_filename !2137 {
  %2 = alloca %"class.std::deque"*, align 4
  %3 = alloca %"struct.std::_Deque_iterator", align 4
  %4 = alloca %"struct.std::_Deque_iterator", align 4
  %5 = alloca i8*
  %6 = alloca i32
  store %"class.std::deque"* %0, %"class.std::deque"** %2, align 4
  call void @llvm.dbg.declare(metadata %"class.std::deque"** %2, metadata !3310, metadata !1650), !dbg !3311
  %7 = load %"class.std::deque"*, %"class.std::deque"** %2, align 4
  call void @_ZNSt5dequeIfSaIfEE5beginEv(%"struct.std::_Deque_iterator"* sret %3, %"class.std::deque"* %7) #3, !dbg !3312
  call void @_ZNSt5dequeIfSaIfEE3endEv(%"struct.std::_Deque_iterator"* sret %4, %"class.std::deque"* %7) #3, !dbg !3314
  %8 = bitcast %"class.std::deque"* %7 to %"class.std::_Deque_base"*, !dbg !3316
  %9 = call dereferenceable(1) %"class.std::allocator.0"* @_ZNSt11_Deque_baseIfSaIfEE19_M_get_Tp_allocatorEv(%"class.std::_Deque_base"* %8) #3, !dbg !3317
  invoke void @_ZNSt5dequeIfSaIfEE15_M_destroy_dataESt15_Deque_iteratorIfRfPfES5_RKS0_(%"class.std::deque"* %7, %"struct.std::_Deque_iterator"* %3, %"struct.std::_Deque_iterator"* %4, %"class.std::allocator.0"* dereferenceable(1) %9)
          to label %10 unwind label %13, !dbg !3319

; <label>:10:                                     ; preds = %1
  %11 = bitcast %"class.std::deque"* %7 to %"class.std::_Deque_base"*, !dbg !3320
  %12 = call %"class.std::_Deque_base"* @_ZNSt11_Deque_baseIfSaIfEED2Ev(%"class.std::_Deque_base"* %11) #3, !dbg !3320
  ret %"class.std::deque"* %7, !dbg !3320

; <label>:13:                                     ; preds = %1
  %14 = landingpad { i8*, i32 }
          catch i8* null, !dbg !3322
  %15 = extractvalue { i8*, i32 } %14, 0, !dbg !3322
  store i8* %15, i8** %5, align 4, !dbg !3322
  %16 = extractvalue { i8*, i32 } %14, 1, !dbg !3322
  store i32 %16, i32* %6, align 4, !dbg !3322
  %17 = bitcast %"class.std::deque"* %7 to %"class.std::_Deque_base"*, !dbg !3322
  %18 = call %"class.std::_Deque_base"* @_ZNSt11_Deque_baseIfSaIfEED2Ev(%"class.std::_Deque_base"* %17) #3, !dbg !3322
  br label %19, !dbg !3322

; <label>:19:                                     ; preds = %13
  %20 = load i8*, i8** %5, align 4, !dbg !3324
  call void @__clang_call_terminate(i8* %20) #14, !dbg !3324
  unreachable, !dbg !3324
}

; Function Attrs: nounwind
define linkonce_odr void @_ZN3hls6streamIfED0Ev(%"class.hls::stream"*) unnamed_addr #4 comdat align 2 !dbg !3326 !xidane.fname !2062 !xidane.function_declaration_type !1636 !xidane.function_declaration_filename !1856 {
  %2 = alloca %"class.hls::stream"*, align 4
  store %"class.hls::stream"* %0, %"class.hls::stream"** %2, align 4
  call void @llvm.dbg.declare(metadata %"class.hls::stream"** %2, metadata !3327, metadata !1650), !dbg !3328
  %3 = load %"class.hls::stream"*, %"class.hls::stream"** %2, align 4
  %4 = call %"class.hls::stream"* @_ZN3hls6streamIfED2Ev(%"class.hls::stream"* %3) #3, !dbg !3329
  %5 = bitcast %"class.hls::stream"* %3 to i8*, !dbg !3329
  call void @_ZdlPv(i8* %5) #15, !dbg !3330
  ret void, !dbg !3332
}

define linkonce_odr %"class.std::_Deque_base"* @_ZNSt11_Deque_baseIfSaIfEEC2Ev(%"class.std::_Deque_base"* returned) unnamed_addr #0 comdat align 2 personality i8* bitcast (i32 (...)* @__gxx_personality_v0 to i8*) !dbg !3333 !xidane.fname !3334 !xidane.function_declaration_type !1636 !xidane.function_declaration_filename !2137 {
  %2 = alloca %"class.std::_Deque_base"*, align 4
  %3 = alloca i8*
  %4 = alloca i32
  store %"class.std::_Deque_base"* %0, %"class.std::_Deque_base"** %2, align 4
  call void @llvm.dbg.declare(metadata %"class.std::_Deque_base"** %2, metadata !3335, metadata !1650), !dbg !3336
  %5 = load %"class.std::_Deque_base"*, %"class.std::_Deque_base"** %2, align 4
  %6 = getelementptr inbounds %"class.std::_Deque_base", %"class.std::_Deque_base"* %5, i32 0, i32 0, !dbg !3337
  %7 = call %"struct.std::_Deque_base<float, std::allocator<float> >::_Deque_impl"* @_ZNSt11_Deque_baseIfSaIfEE11_Deque_implC2Ev(%"struct.std::_Deque_base<float, std::allocator<float> >::_Deque_impl"* %6), !dbg !3337
  invoke void @_ZNSt11_Deque_baseIfSaIfEE17_M_initialize_mapEj(%"class.std::_Deque_base"* %5, i32 0)
          to label %8 unwind label %9, !dbg !3338

; <label>:8:                                      ; preds = %1
  ret %"class.std::_Deque_base"* %5, !dbg !3340

; <label>:9:                                      ; preds = %1
  %10 = landingpad { i8*, i32 }
          cleanup, !dbg !3342
  %11 = extractvalue { i8*, i32 } %10, 0, !dbg !3342
  store i8* %11, i8** %3, align 4, !dbg !3342
  %12 = extractvalue { i8*, i32 } %10, 1, !dbg !3342
  store i32 %12, i32* %4, align 4, !dbg !3342
  %13 = call %"struct.std::_Deque_base<float, std::allocator<float> >::_Deque_impl"* @_ZNSt11_Deque_baseIfSaIfEE11_Deque_implD2Ev(%"struct.std::_Deque_base<float, std::allocator<float> >::_Deque_impl"* %6) #3, !dbg !3342
  br label %14, !dbg !3342

; <label>:14:                                     ; preds = %9
  %15 = load i8*, i8** %3, align 4, !dbg !3344
  %16 = load i32, i32* %4, align 4, !dbg !3344
  %17 = insertvalue { i8*, i32 } undef, i8* %15, 0, !dbg !3344
  %18 = insertvalue { i8*, i32 } %17, i32 %16, 1, !dbg !3344
  resume { i8*, i32 } %18, !dbg !3344
}

; Function Attrs: nounwind
define linkonce_odr %"struct.std::_Deque_base<float, std::allocator<float> >::_Deque_impl"* @_ZNSt11_Deque_baseIfSaIfEE11_Deque_implC2Ev(%"struct.std::_Deque_base<float, std::allocator<float> >::_Deque_impl"* returned) unnamed_addr #4 comdat align 2 !dbg !3346 !xidane.fname !3347 !xidane.function_declaration_type !1636 !xidane.function_declaration_filename !2137 {
  %2 = alloca %"struct.std::_Deque_base<float, std::allocator<float> >::_Deque_impl"*, align 4
  store %"struct.std::_Deque_base<float, std::allocator<float> >::_Deque_impl"* %0, %"struct.std::_Deque_base<float, std::allocator<float> >::_Deque_impl"** %2, align 4
  call void @llvm.dbg.declare(metadata %"struct.std::_Deque_base<float, std::allocator<float> >::_Deque_impl"** %2, metadata !3348, metadata !1650), !dbg !3350
  %3 = load %"struct.std::_Deque_base<float, std::allocator<float> >::_Deque_impl"*, %"struct.std::_Deque_base<float, std::allocator<float> >::_Deque_impl"** %2, align 4
  %4 = bitcast %"struct.std::_Deque_base<float, std::allocator<float> >::_Deque_impl"* %3 to %"class.std::allocator.0"*, !dbg !3351
  %5 = call %"class.std::allocator.0"* @_ZNSaIfEC2Ev(%"class.std::allocator.0"* %4) #3, !dbg !3352
  %6 = getelementptr inbounds %"struct.std::_Deque_base<float, std::allocator<float> >::_Deque_impl", %"struct.std::_Deque_base<float, std::allocator<float> >::_Deque_impl"* %3, i32 0, i32 0, !dbg !3353
  store float** null, float*** %6, align 4, !dbg !3353
  %7 = getelementptr inbounds %"struct.std::_Deque_base<float, std::allocator<float> >::_Deque_impl", %"struct.std::_Deque_base<float, std::allocator<float> >::_Deque_impl"* %3, i32 0, i32 1, !dbg !3354
  store i32 0, i32* %7, align 4, !dbg !3354
  %8 = getelementptr inbounds %"struct.std::_Deque_base<float, std::allocator<float> >::_Deque_impl", %"struct.std::_Deque_base<float, std::allocator<float> >::_Deque_impl"* %3, i32 0, i32 2, !dbg !3355
  %9 = call %"struct.std::_Deque_iterator"* @_ZNSt15_Deque_iteratorIfRfPfEC2Ev(%"struct.std::_Deque_iterator"* %8) #3, !dbg !3355
  %10 = getelementptr inbounds %"struct.std::_Deque_base<float, std::allocator<float> >::_Deque_impl", %"struct.std::_Deque_base<float, std::allocator<float> >::_Deque_impl"* %3, i32 0, i32 3, !dbg !3356
  %11 = call %"struct.std::_Deque_iterator"* @_ZNSt15_Deque_iteratorIfRfPfEC2Ev(%"struct.std::_Deque_iterator"* %10) #3, !dbg !3357
  ret %"struct.std::_Deque_base<float, std::allocator<float> >::_Deque_impl"* %3, !dbg !3359
}

define linkonce_odr void @_ZNSt11_Deque_baseIfSaIfEE17_M_initialize_mapEj(%"class.std::_Deque_base"*, i32) #0 comdat align 2 personality i8* bitcast (i32 (...)* @__gxx_personality_v0 to i8*) !dbg !3360 !xidane.fname !3361 !xidane.function_declaration_type !3362 !xidane.function_declaration_filename !2137 {
  %3 = alloca %"class.std::_Deque_base"*, align 4
  %4 = alloca i32, align 4
  %5 = alloca i32, align 4
  %6 = alloca i32, align 4
  %7 = alloca i32, align 4
  %8 = alloca float**, align 4
  %9 = alloca float**, align 4
  %10 = alloca i8*
  %11 = alloca i32
  store %"class.std::_Deque_base"* %0, %"class.std::_Deque_base"** %3, align 4
  call void @llvm.dbg.declare(metadata %"class.std::_Deque_base"** %3, metadata !3363, metadata !1650), !dbg !3364
  store i32 %1, i32* %4, align 4
  call void @llvm.dbg.declare(metadata i32* %4, metadata !3365, metadata !1650), !dbg !3366
  %12 = load %"class.std::_Deque_base"*, %"class.std::_Deque_base"** %3, align 4
  call void @llvm.dbg.declare(metadata i32* %5, metadata !3367, metadata !1650), !dbg !3369
  %13 = load i32, i32* %4, align 4, !dbg !3370
  %14 = call i32 @_ZSt16__deque_buf_sizej(i32 4), !dbg !3371
  %15 = udiv i32 %13, %14, !dbg !3372
  %16 = add i32 %15, 1, !dbg !3373
  store i32 %16, i32* %5, align 4, !dbg !3369
  store i32 8, i32* %6, align 4, !dbg !3374
  %17 = load i32, i32* %5, align 4, !dbg !3375
  %18 = add i32 %17, 2, !dbg !3376
  store i32 %18, i32* %7, align 4, !dbg !3377
  %19 = call dereferenceable(4) i32* @_ZSt3maxIjERKT_S2_S2_(i32* dereferenceable(4) %6, i32* dereferenceable(4) %7), !dbg !3378
  %20 = load i32, i32* %19, align 4, !dbg !3378
  %21 = getelementptr inbounds %"class.std::_Deque_base", %"class.std::_Deque_base"* %12, i32 0, i32 0, !dbg !3379
  %22 = getelementptr inbounds %"struct.std::_Deque_base<float, std::allocator<float> >::_Deque_impl", %"struct.std::_Deque_base<float, std::allocator<float> >::_Deque_impl"* %21, i32 0, i32 1, !dbg !3380
  store i32 %20, i32* %22, align 4, !dbg !3381
  %23 = getelementptr inbounds %"class.std::_Deque_base", %"class.std::_Deque_base"* %12, i32 0, i32 0, !dbg !3382
  %24 = getelementptr inbounds %"struct.std::_Deque_base<float, std::allocator<float> >::_Deque_impl", %"struct.std::_Deque_base<float, std::allocator<float> >::_Deque_impl"* %23, i32 0, i32 1, !dbg !3383
  %25 = load i32, i32* %24, align 4, !dbg !3383
  %26 = call float** @_ZNSt11_Deque_baseIfSaIfEE15_M_allocate_mapEj(%"class.std::_Deque_base"* %12, i32 %25), !dbg !3384
  %27 = getelementptr inbounds %"class.std::_Deque_base", %"class.std::_Deque_base"* %12, i32 0, i32 0, !dbg !3385
  %28 = getelementptr inbounds %"struct.std::_Deque_base<float, std::allocator<float> >::_Deque_impl", %"struct.std::_Deque_base<float, std::allocator<float> >::_Deque_impl"* %27, i32 0, i32 0, !dbg !3386
  store float** %26, float*** %28, align 4, !dbg !3387
  call void @llvm.dbg.declare(metadata float*** %8, metadata !3388, metadata !1650), !dbg !3389
  %29 = getelementptr inbounds %"class.std::_Deque_base", %"class.std::_Deque_base"* %12, i32 0, i32 0, !dbg !3390
  %30 = getelementptr inbounds %"struct.std::_Deque_base<float, std::allocator<float> >::_Deque_impl", %"struct.std::_Deque_base<float, std::allocator<float> >::_Deque_impl"* %29, i32 0, i32 0, !dbg !3391
  %31 = load float**, float*** %30, align 4, !dbg !3391
  %32 = getelementptr inbounds %"class.std::_Deque_base", %"class.std::_Deque_base"* %12, i32 0, i32 0, !dbg !3392
  %33 = getelementptr inbounds %"struct.std::_Deque_base<float, std::allocator<float> >::_Deque_impl", %"struct.std::_Deque_base<float, std::allocator<float> >::_Deque_impl"* %32, i32 0, i32 1, !dbg !3393
  %34 = load i32, i32* %33, align 4, !dbg !3393
  %35 = load i32, i32* %5, align 4, !dbg !3394
  %36 = sub i32 %34, %35, !dbg !3395
  %37 = udiv i32 %36, 2, !dbg !3396
  %38 = getelementptr inbounds float*, float** %31, i32 %37, !dbg !3397
  store float** %38, float*** %8, align 4, !dbg !3389
  call void @llvm.dbg.declare(metadata float*** %9, metadata !3398, metadata !1650), !dbg !3399
  %39 = load float**, float*** %8, align 4, !dbg !3400
  %40 = load i32, i32* %5, align 4, !dbg !3401
  %41 = getelementptr inbounds float*, float** %39, i32 %40, !dbg !3402
  store float** %41, float*** %9, align 4, !dbg !3399
  %42 = load float**, float*** %8, align 4, !dbg !3403
  %43 = load float**, float*** %9, align 4, !dbg !3405
  invoke void @_ZNSt11_Deque_baseIfSaIfEE15_M_create_nodesEPPfS3_(%"class.std::_Deque_base"* %12, float** %42, float** %43)
          to label %44 unwind label %45, !dbg !3406

; <label>:44:                                     ; preds = %2
  br label %67, !dbg !3407

; <label>:45:                                     ; preds = %2
  %46 = landingpad { i8*, i32 }
          catch i8* null, !dbg !3409
  %47 = extractvalue { i8*, i32 } %46, 0, !dbg !3409
  store i8* %47, i8** %10, align 4, !dbg !3409
  %48 = extractvalue { i8*, i32 } %46, 1, !dbg !3409
  store i32 %48, i32* %11, align 4, !dbg !3409
  br label %49, !dbg !3409

; <label>:49:                                     ; preds = %45
  %50 = load i8*, i8** %10, align 4, !dbg !3410
  %51 = call i8* @__cxa_begin_catch(i8* %50) #3, !dbg !3410
  %52 = getelementptr inbounds %"class.std::_Deque_base", %"class.std::_Deque_base"* %12, i32 0, i32 0, !dbg !3412
  %53 = getelementptr inbounds %"struct.std::_Deque_base<float, std::allocator<float> >::_Deque_impl", %"struct.std::_Deque_base<float, std::allocator<float> >::_Deque_impl"* %52, i32 0, i32 0, !dbg !3414
  %54 = load float**, float*** %53, align 4, !dbg !3414
  %55 = getelementptr inbounds %"class.std::_Deque_base", %"class.std::_Deque_base"* %12, i32 0, i32 0, !dbg !3415
  %56 = getelementptr inbounds %"struct.std::_Deque_base<float, std::allocator<float> >::_Deque_impl", %"struct.std::_Deque_base<float, std::allocator<float> >::_Deque_impl"* %55, i32 0, i32 1, !dbg !3416
  %57 = load i32, i32* %56, align 4, !dbg !3416
  call void @_ZNSt11_Deque_baseIfSaIfEE17_M_deallocate_mapEPPfj(%"class.std::_Deque_base"* %12, float** %54, i32 %57) #3, !dbg !3417
  %58 = getelementptr inbounds %"class.std::_Deque_base", %"class.std::_Deque_base"* %12, i32 0, i32 0, !dbg !3418
  %59 = getelementptr inbounds %"struct.std::_Deque_base<float, std::allocator<float> >::_Deque_impl", %"struct.std::_Deque_base<float, std::allocator<float> >::_Deque_impl"* %58, i32 0, i32 0, !dbg !3419
  store float** null, float*** %59, align 4, !dbg !3420
  %60 = getelementptr inbounds %"class.std::_Deque_base", %"class.std::_Deque_base"* %12, i32 0, i32 0, !dbg !3421
  %61 = getelementptr inbounds %"struct.std::_Deque_base<float, std::allocator<float> >::_Deque_impl", %"struct.std::_Deque_base<float, std::allocator<float> >::_Deque_impl"* %60, i32 0, i32 1, !dbg !3422
  store i32 0, i32* %61, align 4, !dbg !3423
  invoke void @__cxa_rethrow() #13
          to label %101 unwind label %62, !dbg !3424

; <label>:62:                                     ; preds = %49
  %63 = landingpad { i8*, i32 }
          cleanup, !dbg !3425
  %64 = extractvalue { i8*, i32 } %63, 0, !dbg !3425
  store i8* %64, i8** %10, align 4, !dbg !3425
  %65 = extractvalue { i8*, i32 } %63, 1, !dbg !3425
  store i32 %65, i32* %11, align 4, !dbg !3425
  invoke void @__cxa_end_catch()
          to label %66 unwind label %98, !dbg !3427

; <label>:66:                                     ; preds = %62
  br label %93, !dbg !3428

; <label>:67:                                     ; preds = %44
  %68 = getelementptr inbounds %"class.std::_Deque_base", %"class.std::_Deque_base"* %12, i32 0, i32 0, !dbg !3429
  %69 = getelementptr inbounds %"struct.std::_Deque_base<float, std::allocator<float> >::_Deque_impl", %"struct.std::_Deque_base<float, std::allocator<float> >::_Deque_impl"* %68, i32 0, i32 2, !dbg !3430
  %70 = load float**, float*** %8, align 4, !dbg !3431
  call void @_ZNSt15_Deque_iteratorIfRfPfE11_M_set_nodeEPS1_(%"struct.std::_Deque_iterator"* %69, float** %70) #3, !dbg !3432
  %71 = getelementptr inbounds %"class.std::_Deque_base", %"class.std::_Deque_base"* %12, i32 0, i32 0, !dbg !3433
  %72 = getelementptr inbounds %"struct.std::_Deque_base<float, std::allocator<float> >::_Deque_impl", %"struct.std::_Deque_base<float, std::allocator<float> >::_Deque_impl"* %71, i32 0, i32 3, !dbg !3434
  %73 = load float**, float*** %9, align 4, !dbg !3435
  %74 = getelementptr inbounds float*, float** %73, i32 -1, !dbg !3436
  call void @_ZNSt15_Deque_iteratorIfRfPfE11_M_set_nodeEPS1_(%"struct.std::_Deque_iterator"* %72, float** %74) #3, !dbg !3437
  %75 = getelementptr inbounds %"class.std::_Deque_base", %"class.std::_Deque_base"* %12, i32 0, i32 0, !dbg !3438
  %76 = getelementptr inbounds %"struct.std::_Deque_base<float, std::allocator<float> >::_Deque_impl", %"struct.std::_Deque_base<float, std::allocator<float> >::_Deque_impl"* %75, i32 0, i32 2, !dbg !3439
  %77 = getelementptr inbounds %"struct.std::_Deque_iterator", %"struct.std::_Deque_iterator"* %76, i32 0, i32 1, !dbg !3440
  %78 = load float*, float** %77, align 4, !dbg !3440
  %79 = getelementptr inbounds %"class.std::_Deque_base", %"class.std::_Deque_base"* %12, i32 0, i32 0, !dbg !3441
  %80 = getelementptr inbounds %"struct.std::_Deque_base<float, std::allocator<float> >::_Deque_impl", %"struct.std::_Deque_base<float, std::allocator<float> >::_Deque_impl"* %79, i32 0, i32 2, !dbg !3442
  %81 = getelementptr inbounds %"struct.std::_Deque_iterator", %"struct.std::_Deque_iterator"* %80, i32 0, i32 0, !dbg !3443
  store float* %78, float** %81, align 4, !dbg !3444
  %82 = getelementptr inbounds %"class.std::_Deque_base", %"class.std::_Deque_base"* %12, i32 0, i32 0, !dbg !3445
  %83 = getelementptr inbounds %"struct.std::_Deque_base<float, std::allocator<float> >::_Deque_impl", %"struct.std::_Deque_base<float, std::allocator<float> >::_Deque_impl"* %82, i32 0, i32 3, !dbg !3446
  %84 = getelementptr inbounds %"struct.std::_Deque_iterator", %"struct.std::_Deque_iterator"* %83, i32 0, i32 1, !dbg !3447
  %85 = load float*, float** %84, align 4, !dbg !3447
  %86 = load i32, i32* %4, align 4, !dbg !3448
  %87 = call i32 @_ZSt16__deque_buf_sizej(i32 4), !dbg !3449
  %88 = urem i32 %86, %87, !dbg !3450
  %89 = getelementptr inbounds float, float* %85, i32 %88, !dbg !3451
  %90 = getelementptr inbounds %"class.std::_Deque_base", %"class.std::_Deque_base"* %12, i32 0, i32 0, !dbg !3452
  %91 = getelementptr inbounds %"struct.std::_Deque_base<float, std::allocator<float> >::_Deque_impl", %"struct.std::_Deque_base<float, std::allocator<float> >::_Deque_impl"* %90, i32 0, i32 3, !dbg !3453
  %92 = getelementptr inbounds %"struct.std::_Deque_iterator", %"struct.std::_Deque_iterator"* %91, i32 0, i32 0, !dbg !3454
  store float* %89, float** %92, align 4, !dbg !3455
  ret void, !dbg !3456

; <label>:93:                                     ; preds = %66
  %94 = load i8*, i8** %10, align 4, !dbg !3458
  %95 = load i32, i32* %11, align 4, !dbg !3458
  %96 = insertvalue { i8*, i32 } undef, i8* %94, 0, !dbg !3458
  %97 = insertvalue { i8*, i32 } %96, i32 %95, 1, !dbg !3458
  resume { i8*, i32 } %97, !dbg !3458

; <label>:98:                                     ; preds = %62
  %99 = landingpad { i8*, i32 }
          catch i8* null, !dbg !3460
  %100 = extractvalue { i8*, i32 } %99, 0, !dbg !3460
  call void @__clang_call_terminate(i8* %100) #14, !dbg !3460
  unreachable, !dbg !3460

; <label>:101:                                    ; preds = %49
  unreachable
}

; Function Attrs: inlinehint nounwind
define linkonce_odr %"struct.std::_Deque_base<float, std::allocator<float> >::_Deque_impl"* @_ZNSt11_Deque_baseIfSaIfEE11_Deque_implD2Ev(%"struct.std::_Deque_base<float, std::allocator<float> >::_Deque_impl"* returned) unnamed_addr #8 comdat align 2 !dbg !3462 !xidane.fname !3464 !xidane.function_declaration_type !1636 !xidane.function_declaration_filename !2137 {
  %2 = alloca %"struct.std::_Deque_base<float, std::allocator<float> >::_Deque_impl"*, align 4
  store %"struct.std::_Deque_base<float, std::allocator<float> >::_Deque_impl"* %0, %"struct.std::_Deque_base<float, std::allocator<float> >::_Deque_impl"** %2, align 4
  call void @llvm.dbg.declare(metadata %"struct.std::_Deque_base<float, std::allocator<float> >::_Deque_impl"** %2, metadata !3465, metadata !1650), !dbg !3466
  %3 = load %"struct.std::_Deque_base<float, std::allocator<float> >::_Deque_impl"*, %"struct.std::_Deque_base<float, std::allocator<float> >::_Deque_impl"** %2, align 4
  %4 = bitcast %"struct.std::_Deque_base<float, std::allocator<float> >::_Deque_impl"* %3 to %"class.std::allocator.0"*, !dbg !3467
  %5 = call %"class.std::allocator.0"* @_ZNSaIfED2Ev(%"class.std::allocator.0"* %4) #3, !dbg !3467
  ret %"struct.std::_Deque_base<float, std::allocator<float> >::_Deque_impl"* %3, !dbg !3469
}

; Function Attrs: nounwind
define linkonce_odr %"class.std::allocator.0"* @_ZNSaIfEC2Ev(%"class.std::allocator.0"* returned) unnamed_addr #4 comdat align 2 !dbg !3470 !xidane.fname !3471 !xidane.function_declaration_type !1636 !xidane.function_declaration_filename !2821 {
  %2 = alloca %"class.std::allocator.0"*, align 4
  store %"class.std::allocator.0"* %0, %"class.std::allocator.0"** %2, align 4
  call void @llvm.dbg.declare(metadata %"class.std::allocator.0"** %2, metadata !3472, metadata !1650), !dbg !3474
  %3 = load %"class.std::allocator.0"*, %"class.std::allocator.0"** %2, align 4
  %4 = bitcast %"class.std::allocator.0"* %3 to %"class.__gnu_cxx::new_allocator.1"*, !dbg !3475
  %5 = call %"class.__gnu_cxx::new_allocator.1"* @_ZN9__gnu_cxx13new_allocatorIfEC2Ev(%"class.__gnu_cxx::new_allocator.1"* %4) #3, !dbg !3476
  ret %"class.std::allocator.0"* %3, !dbg !3477
}

; Function Attrs: nounwind
define linkonce_odr %"struct.std::_Deque_iterator"* @_ZNSt15_Deque_iteratorIfRfPfEC2Ev(%"struct.std::_Deque_iterator"* returned) unnamed_addr #4 comdat align 2 !dbg !3478 !xidane.fname !3091 !xidane.function_declaration_type !1636 !xidane.function_declaration_filename !2137 {
  %2 = alloca %"struct.std::_Deque_iterator"*, align 4
  store %"struct.std::_Deque_iterator"* %0, %"struct.std::_Deque_iterator"** %2, align 4
  call void @llvm.dbg.declare(metadata %"struct.std::_Deque_iterator"** %2, metadata !3479, metadata !1650), !dbg !3480
  %3 = load %"struct.std::_Deque_iterator"*, %"struct.std::_Deque_iterator"** %2, align 4
  %4 = getelementptr inbounds %"struct.std::_Deque_iterator", %"struct.std::_Deque_iterator"* %3, i32 0, i32 0, !dbg !3481
  store float* null, float** %4, align 4, !dbg !3481
  %5 = getelementptr inbounds %"struct.std::_Deque_iterator", %"struct.std::_Deque_iterator"* %3, i32 0, i32 1, !dbg !3482
  store float* null, float** %5, align 4, !dbg !3482
  %6 = getelementptr inbounds %"struct.std::_Deque_iterator", %"struct.std::_Deque_iterator"* %3, i32 0, i32 2, !dbg !3483
  store float* null, float** %6, align 4, !dbg !3483
  %7 = getelementptr inbounds %"struct.std::_Deque_iterator", %"struct.std::_Deque_iterator"* %3, i32 0, i32 3, !dbg !3484
  store float** null, float*** %7, align 4, !dbg !3484
  ret %"struct.std::_Deque_iterator"* %3, !dbg !3485
}

; Function Attrs: nounwind
define linkonce_odr %"class.__gnu_cxx::new_allocator.1"* @_ZN9__gnu_cxx13new_allocatorIfEC2Ev(%"class.__gnu_cxx::new_allocator.1"* returned) unnamed_addr #4 comdat align 2 !dbg !3486 !xidane.fname !2852 !xidane.function_declaration_type !1636 !xidane.function_declaration_filename !2264 {
  %2 = alloca %"class.__gnu_cxx::new_allocator.1"*, align 4
  store %"class.__gnu_cxx::new_allocator.1"* %0, %"class.__gnu_cxx::new_allocator.1"** %2, align 4
  call void @llvm.dbg.declare(metadata %"class.__gnu_cxx::new_allocator.1"** %2, metadata !3487, metadata !1650), !dbg !3488
  %3 = load %"class.__gnu_cxx::new_allocator.1"*, %"class.__gnu_cxx::new_allocator.1"** %2, align 4
  ret %"class.__gnu_cxx::new_allocator.1"* %3, !dbg !3489
}

define linkonce_odr void @_ZNSt11_Deque_baseIfSaIfEE15_M_create_nodesEPPfS3_(%"class.std::_Deque_base"*, float**, float**) #0 comdat align 2 personality i8* bitcast (i32 (...)* @__gxx_personality_v0 to i8*) !dbg !3490 !xidane.fname !3491 !xidane.function_declaration_type !3492 !xidane.function_declaration_filename !2137 {
  %4 = alloca %"class.std::_Deque_base"*, align 4
  %5 = alloca float**, align 4
  %6 = alloca float**, align 4
  %7 = alloca float**, align 4
  %8 = alloca i8*
  %9 = alloca i32
  store %"class.std::_Deque_base"* %0, %"class.std::_Deque_base"** %4, align 4
  call void @llvm.dbg.declare(metadata %"class.std::_Deque_base"** %4, metadata !3493, metadata !1650), !dbg !3494
  store float** %1, float*** %5, align 4
  call void @llvm.dbg.declare(metadata float*** %5, metadata !3495, metadata !1650), !dbg !3496
  store float** %2, float*** %6, align 4
  call void @llvm.dbg.declare(metadata float*** %6, metadata !3497, metadata !1650), !dbg !3498
  %10 = load %"class.std::_Deque_base"*, %"class.std::_Deque_base"** %4, align 4
  call void @llvm.dbg.declare(metadata float*** %7, metadata !3499, metadata !1650), !dbg !3500
  %11 = load float**, float*** %5, align 4, !dbg !3501
  store float** %11, float*** %7, align 4, !dbg !3504
  br label %12, !dbg !3505

; <label>:12:                                     ; preds = %20, %3
  %13 = load float**, float*** %7, align 4, !dbg !3506
  %14 = load float**, float*** %6, align 4, !dbg !3509
  %15 = icmp ult float** %13, %14, !dbg !3510
  br i1 %15, label %16, label %32, !dbg !3511

; <label>:16:                                     ; preds = %12
  %17 = invoke float* @_ZNSt11_Deque_baseIfSaIfEE16_M_allocate_nodeEv(%"class.std::_Deque_base"* %10)
          to label %18 unwind label %23, !dbg !3512

; <label>:18:                                     ; preds = %16
  %19 = load float**, float*** %7, align 4, !dbg !3513
  store float* %17, float** %19, align 4, !dbg !3514
  br label %20, !dbg !3515

; <label>:20:                                     ; preds = %18
  %21 = load float**, float*** %7, align 4, !dbg !3516
  %22 = getelementptr inbounds float*, float** %21, i32 1, !dbg !3516
  store float** %22, float*** %7, align 4, !dbg !3516
  br label %12, !dbg !3518, !llvm.loop !3519

; <label>:23:                                     ; preds = %16
  %24 = landingpad { i8*, i32 }
          catch i8* null, !dbg !3521
  %25 = extractvalue { i8*, i32 } %24, 0, !dbg !3521
  store i8* %25, i8** %8, align 4, !dbg !3521
  %26 = extractvalue { i8*, i32 } %24, 1, !dbg !3521
  store i32 %26, i32* %9, align 4, !dbg !3521
  br label %27, !dbg !3521

; <label>:27:                                     ; preds = %23
  %28 = load i8*, i8** %8, align 4, !dbg !3522
  %29 = call i8* @__cxa_begin_catch(i8* %28) #3, !dbg !3522
  %30 = load float**, float*** %5, align 4, !dbg !3523
  %31 = load float**, float*** %7, align 4, !dbg !3525
  call void @_ZNSt11_Deque_baseIfSaIfEE16_M_destroy_nodesEPPfS3_(%"class.std::_Deque_base"* %10, float** %30, float** %31) #3, !dbg !3526
  invoke void @__cxa_rethrow() #13
          to label %47 unwind label %33, !dbg !3527

; <label>:32:                                     ; preds = %12
  br label %38, !dbg !3528

; <label>:33:                                     ; preds = %27
  %34 = landingpad { i8*, i32 }
          cleanup, !dbg !3530
  %35 = extractvalue { i8*, i32 } %34, 0, !dbg !3530
  store i8* %35, i8** %8, align 4, !dbg !3530
  %36 = extractvalue { i8*, i32 } %34, 1, !dbg !3530
  store i32 %36, i32* %9, align 4, !dbg !3530
  invoke void @__cxa_end_catch()
          to label %37 unwind label %44, !dbg !3532

; <label>:37:                                     ; preds = %33
  br label %39, !dbg !3533

; <label>:38:                                     ; preds = %32
  ret void, !dbg !3534

; <label>:39:                                     ; preds = %37
  %40 = load i8*, i8** %8, align 4, !dbg !3536
  %41 = load i32, i32* %9, align 4, !dbg !3536
  %42 = insertvalue { i8*, i32 } undef, i8* %40, 0, !dbg !3536
  %43 = insertvalue { i8*, i32 } %42, i32 %41, 1, !dbg !3536
  resume { i8*, i32 } %43, !dbg !3536

; <label>:44:                                     ; preds = %33
  %45 = landingpad { i8*, i32 }
          catch i8* null, !dbg !3538
  %46 = extractvalue { i8*, i32 } %45, 0, !dbg !3538
  call void @__clang_call_terminate(i8* %46) #14, !dbg !3538
  unreachable, !dbg !3538

; <label>:47:                                     ; preds = %27
  unreachable
}

; Function Attrs: nounwind
define linkonce_odr void @_ZNSt11_Deque_baseIfSaIfEE16_M_destroy_nodesEPPfS3_(%"class.std::_Deque_base"*, float**, float**) #4 comdat align 2 !dbg !3540 !xidane.fname !3541 !xidane.function_declaration_type !3492 !xidane.function_declaration_filename !2137 {
  %4 = alloca %"class.std::_Deque_base"*, align 4
  %5 = alloca float**, align 4
  %6 = alloca float**, align 4
  %7 = alloca float**, align 4
  store %"class.std::_Deque_base"* %0, %"class.std::_Deque_base"** %4, align 4
  call void @llvm.dbg.declare(metadata %"class.std::_Deque_base"** %4, metadata !3542, metadata !1650), !dbg !3543
  store float** %1, float*** %5, align 4
  call void @llvm.dbg.declare(metadata float*** %5, metadata !3544, metadata !1650), !dbg !3545
  store float** %2, float*** %6, align 4
  call void @llvm.dbg.declare(metadata float*** %6, metadata !3546, metadata !1650), !dbg !3547
  %8 = load %"class.std::_Deque_base"*, %"class.std::_Deque_base"** %4, align 4
  call void @llvm.dbg.declare(metadata float*** %7, metadata !3548, metadata !1650), !dbg !3550
  %9 = load float**, float*** %5, align 4, !dbg !3551
  store float** %9, float*** %7, align 4, !dbg !3550
  br label %10, !dbg !3552

; <label>:10:                                     ; preds = %17, %3
  %11 = load float**, float*** %7, align 4, !dbg !3553
  %12 = load float**, float*** %6, align 4, !dbg !3556
  %13 = icmp ult float** %11, %12, !dbg !3557
  br i1 %13, label %14, label %20, !dbg !3558

; <label>:14:                                     ; preds = %10
  %15 = load float**, float*** %7, align 4, !dbg !3559
  %16 = load float*, float** %15, align 4, !dbg !3560
  call void @_ZNSt11_Deque_baseIfSaIfEE18_M_deallocate_nodeEPf(%"class.std::_Deque_base"* %8, float* %16) #3, !dbg !3561
  br label %17, !dbg !3561

; <label>:17:                                     ; preds = %14
  %18 = load float**, float*** %7, align 4, !dbg !3562
  %19 = getelementptr inbounds float*, float** %18, i32 1, !dbg !3562
  store float** %19, float*** %7, align 4, !dbg !3562
  br label %10, !dbg !3564, !llvm.loop !3565

; <label>:20:                                     ; preds = %10
  ret void, !dbg !3567
}

; Function Attrs: nounwind
define linkonce_odr %"class.std::allocator.0"* @_ZNSaIfED2Ev(%"class.std::allocator.0"* returned) unnamed_addr #4 comdat align 2 !dbg !3568 !xidane.fname !2820 !xidane.function_declaration_type !1636 !xidane.function_declaration_filename !2821 {
  %2 = alloca %"class.std::allocator.0"*, align 4
  store %"class.std::allocator.0"* %0, %"class.std::allocator.0"** %2, align 4
  call void @llvm.dbg.declare(metadata %"class.std::allocator.0"** %2, metadata !3569, metadata !1650), !dbg !3570
  %3 = load %"class.std::allocator.0"*, %"class.std::allocator.0"** %2, align 4
  %4 = bitcast %"class.std::allocator.0"* %3 to %"class.__gnu_cxx::new_allocator.1"*, !dbg !3571
  %5 = call %"class.__gnu_cxx::new_allocator.1"* @_ZN9__gnu_cxx13new_allocatorIfED2Ev(%"class.__gnu_cxx::new_allocator.1"* %4) #3, !dbg !3571
  ret %"class.std::allocator.0"* %3, !dbg !3573
}

; Function Attrs: nounwind
define linkonce_odr %"class.__gnu_cxx::new_allocator.1"* @_ZN9__gnu_cxx13new_allocatorIfED2Ev(%"class.__gnu_cxx::new_allocator.1"* returned) unnamed_addr #4 comdat align 2 !dbg !3574 !xidane.fname !2888 !xidane.function_declaration_type !1636 !xidane.function_declaration_filename !2264 {
  %2 = alloca %"class.__gnu_cxx::new_allocator.1"*, align 4
  store %"class.__gnu_cxx::new_allocator.1"* %0, %"class.__gnu_cxx::new_allocator.1"** %2, align 4
  call void @llvm.dbg.declare(metadata %"class.__gnu_cxx::new_allocator.1"** %2, metadata !3575, metadata !1650), !dbg !3576
  %3 = load %"class.__gnu_cxx::new_allocator.1"*, %"class.__gnu_cxx::new_allocator.1"** %2, align 4
  ret %"class.__gnu_cxx::new_allocator.1"* %3, !dbg !3577
}

; Function Attrs: nounwind
define linkonce_odr dereferenceable(24) %"class.std::__cxx11::basic_string"* @_ZSt4moveIRNSt7__cxx1112basic_stringIcSt11char_traitsIcESaIcEEEEONSt16remove_referenceIT_E4typeEOS8_(%"class.std::__cxx11::basic_string"* dereferenceable(24)) #4 comdat !dbg !3578 !xidane.fname !3587 !xidane.function_declaration_type !3588 !xidane.function_declaration_filename !2288 {
  %2 = alloca %"class.std::__cxx11::basic_string"*, align 4
  store %"class.std::__cxx11::basic_string"* %0, %"class.std::__cxx11::basic_string"** %2, align 4
  call void @llvm.dbg.declare(metadata %"class.std::__cxx11::basic_string"** %2, metadata !3589, metadata !1650), !dbg !3590
  %3 = load %"class.std::__cxx11::basic_string"*, %"class.std::__cxx11::basic_string"** %2, align 4, !dbg !3591
  ret %"class.std::__cxx11::basic_string"* %3, !dbg !3592
}

declare !xidane.fname !3593 !xidane.function_declaration_type !3594 !xidane.function_declaration_filename !3015 dereferenceable(24) %"class.std::__cxx11::basic_string"* @_ZNSt7__cxx1112basic_stringIcSt11char_traitsIcESaIcEE6insertEjPKc(%"class.std::__cxx11::basic_string"*, i32, i8*) #1

; Function Attrs: nounwind
declare !xidane.fname !3173 !xidane.function_declaration_type !3595 !xidane.function_declaration_filename !3015 %"class.std::__cxx11::basic_string"* @_ZNSt7__cxx1112basic_stringIcSt11char_traitsIcESaIcEEC1EOS4_(%"class.std::__cxx11::basic_string"* returned, %"class.std::__cxx11::basic_string"* dereferenceable(24)) unnamed_addr #2

; Function Attrs: nounwind
define linkonce_odr void @_ZNSt5dequeIfSaIfEE15_M_destroy_dataESt15_Deque_iteratorIfRfPfES5_RKS0_(%"class.std::deque"*, %"struct.std::_Deque_iterator"*, %"struct.std::_Deque_iterator"*, %"class.std::allocator.0"* dereferenceable(1)) #4 comdat align 2 !dbg !3596 !xidane.fname !3597 !xidane.function_declaration_type !3598 !xidane.function_declaration_filename !2137 {
  %5 = alloca %"class.std::deque"*, align 4
  %6 = alloca %"class.std::allocator.0"*, align 4
  store %"class.std::deque"* %0, %"class.std::deque"** %5, align 4
  call void @llvm.dbg.declare(metadata %"class.std::deque"** %5, metadata !3599, metadata !1650), !dbg !3600
  call void @llvm.dbg.declare(metadata %"struct.std::_Deque_iterator"* %1, metadata !3601, metadata !3602), !dbg !3603
  call void @llvm.dbg.declare(metadata %"struct.std::_Deque_iterator"* %2, metadata !3604, metadata !3602), !dbg !3605
  store %"class.std::allocator.0"* %3, %"class.std::allocator.0"** %6, align 4
  call void @llvm.dbg.declare(metadata %"class.std::allocator.0"** %6, metadata !3606, metadata !1650), !dbg !3607
  %7 = load %"class.std::deque"*, %"class.std::deque"** %5, align 4
  ret void, !dbg !3608
}

; Function Attrs: nounwind
define linkonce_odr void @_ZNSt5dequeIfSaIfEE3endEv(%"struct.std::_Deque_iterator"* noalias sret, %"class.std::deque"*) #4 comdat align 2 !dbg !3609 !xidane.fname !3610 !xidane.function_declaration_type !3076 !xidane.function_declaration_filename !2137 {
  %3 = alloca %"class.std::deque"*, align 4
  store %"class.std::deque"* %1, %"class.std::deque"** %3, align 4
  call void @llvm.dbg.declare(metadata %"class.std::deque"** %3, metadata !3611, metadata !1650), !dbg !3612
  %4 = load %"class.std::deque"*, %"class.std::deque"** %3, align 4
  %5 = bitcast %"class.std::deque"* %4 to %"class.std::_Deque_base"*, !dbg !3613
  %6 = getelementptr inbounds %"class.std::_Deque_base", %"class.std::_Deque_base"* %5, i32 0, i32 0, !dbg !3613
  %7 = getelementptr inbounds %"struct.std::_Deque_base<float, std::allocator<float> >::_Deque_impl", %"struct.std::_Deque_base<float, std::allocator<float> >::_Deque_impl"* %6, i32 0, i32 3, !dbg !3614
  %8 = call %"struct.std::_Deque_iterator"* @_ZNSt15_Deque_iteratorIfRfPfEC2ERKS2_(%"struct.std::_Deque_iterator"* %0, %"struct.std::_Deque_iterator"* dereferenceable(16) %7) #3, !dbg !3615
  ret void, !dbg !3616
}

; Function Attrs: nounwind
define linkonce_odr %"class.std::_Deque_base"* @_ZNSt11_Deque_baseIfSaIfEED2Ev(%"class.std::_Deque_base"* returned) unnamed_addr #4 comdat align 2 !dbg !3617 !xidane.fname !3618 !xidane.function_declaration_type !1636 !xidane.function_declaration_filename !2137 {
  %2 = alloca %"class.std::_Deque_base"*, align 4
  %3 = alloca %"class.std::_Deque_base"*, align 4
  store %"class.std::_Deque_base"* %0, %"class.std::_Deque_base"** %3, align 4
  call void @llvm.dbg.declare(metadata %"class.std::_Deque_base"** %3, metadata !3619, metadata !1650), !dbg !3620
  %4 = load %"class.std::_Deque_base"*, %"class.std::_Deque_base"** %3, align 4
  store %"class.std::_Deque_base"* %4, %"class.std::_Deque_base"** %2, align 4
  %5 = getelementptr inbounds %"class.std::_Deque_base", %"class.std::_Deque_base"* %4, i32 0, i32 0, !dbg !3621
  %6 = getelementptr inbounds %"struct.std::_Deque_base<float, std::allocator<float> >::_Deque_impl", %"struct.std::_Deque_base<float, std::allocator<float> >::_Deque_impl"* %5, i32 0, i32 0, !dbg !3624
  %7 = load float**, float*** %6, align 4, !dbg !3624
  %8 = icmp ne float** %7, null, !dbg !3625
  br i1 %8, label %9, label %25, !dbg !3626

; <label>:9:                                      ; preds = %1
  %10 = getelementptr inbounds %"class.std::_Deque_base", %"class.std::_Deque_base"* %4, i32 0, i32 0, !dbg !3627
  %11 = getelementptr inbounds %"struct.std::_Deque_base<float, std::allocator<float> >::_Deque_impl", %"struct.std::_Deque_base<float, std::allocator<float> >::_Deque_impl"* %10, i32 0, i32 2, !dbg !3629
  %12 = getelementptr inbounds %"struct.std::_Deque_iterator", %"struct.std::_Deque_iterator"* %11, i32 0, i32 3, !dbg !3630
  %13 = load float**, float*** %12, align 4, !dbg !3630
  %14 = getelementptr inbounds %"class.std::_Deque_base", %"class.std::_Deque_base"* %4, i32 0, i32 0, !dbg !3631
  %15 = getelementptr inbounds %"struct.std::_Deque_base<float, std::allocator<float> >::_Deque_impl", %"struct.std::_Deque_base<float, std::allocator<float> >::_Deque_impl"* %14, i32 0, i32 3, !dbg !3632
  %16 = getelementptr inbounds %"struct.std::_Deque_iterator", %"struct.std::_Deque_iterator"* %15, i32 0, i32 3, !dbg !3633
  %17 = load float**, float*** %16, align 4, !dbg !3633
  %18 = getelementptr inbounds float*, float** %17, i32 1, !dbg !3634
  call void @_ZNSt11_Deque_baseIfSaIfEE16_M_destroy_nodesEPPfS3_(%"class.std::_Deque_base"* %4, float** %13, float** %18) #3, !dbg !3635
  %19 = getelementptr inbounds %"class.std::_Deque_base", %"class.std::_Deque_base"* %4, i32 0, i32 0, !dbg !3636
  %20 = getelementptr inbounds %"struct.std::_Deque_base<float, std::allocator<float> >::_Deque_impl", %"struct.std::_Deque_base<float, std::allocator<float> >::_Deque_impl"* %19, i32 0, i32 0, !dbg !3637
  %21 = load float**, float*** %20, align 4, !dbg !3637
  %22 = getelementptr inbounds %"class.std::_Deque_base", %"class.std::_Deque_base"* %4, i32 0, i32 0, !dbg !3638
  %23 = getelementptr inbounds %"struct.std::_Deque_base<float, std::allocator<float> >::_Deque_impl", %"struct.std::_Deque_base<float, std::allocator<float> >::_Deque_impl"* %22, i32 0, i32 1, !dbg !3639
  %24 = load i32, i32* %23, align 4, !dbg !3639
  call void @_ZNSt11_Deque_baseIfSaIfEE17_M_deallocate_mapEPPfj(%"class.std::_Deque_base"* %4, float** %21, i32 %24) #3, !dbg !3640
  br label %25, !dbg !3641

; <label>:25:                                     ; preds = %9, %1
  %26 = getelementptr inbounds %"class.std::_Deque_base", %"class.std::_Deque_base"* %4, i32 0, i32 0, !dbg !3642
  %27 = call %"struct.std::_Deque_base<float, std::allocator<float> >::_Deque_impl"* @_ZNSt11_Deque_baseIfSaIfEE11_Deque_implD2Ev(%"struct.std::_Deque_base<float, std::allocator<float> >::_Deque_impl"* %26) #3, !dbg !3642
  %28 = load %"class.std::_Deque_base"*, %"class.std::_Deque_base"** %2, align 4, !dbg !3643
  ret %"class.std::_Deque_base"* %28, !dbg !3643
}

declare void @__cxa_call_unexpected(i8*)

define internal void @_GLOBAL__sub_I_kernel.cpp() #0 section ".text.startup" !dbg !3644 {
  call void @__cxx_global_var_init(), !dbg !3646
  ret void
}

attributes #0 = { "disable-tail-calls"="false" "less-precise-fpmad"="false" "no-frame-pointer-elim"="true" "no-frame-pointer-elim-non-leaf" "no-infs-fp-math"="false" "no-jump-tables"="false" "no-nans-fp-math"="false" "no-signed-zeros-fp-math"="false" "stack-protector-buffer-size"="8" "target-cpu"="cortex-a9" "target-features"="+dsp,+vfp3,-crypto,-d16,-fp-armv8,-fp-only-sp,-fp16,-neon,-vfp4" "unsafe-fp-math"="false" "use-soft-float"="false" }
attributes #1 = { "disable-tail-calls"="false" "less-precise-fpmad"="false" "no-frame-pointer-elim"="true" "no-frame-pointer-elim-non-leaf" "no-infs-fp-math"="false" "no-nans-fp-math"="false" "no-signed-zeros-fp-math"="false" "stack-protector-buffer-size"="8" "target-cpu"="cortex-a9" "target-features"="+dsp,+vfp3,-crypto,-d16,-fp-armv8,-fp-only-sp,-fp16,-neon,-vfp4" "unsafe-fp-math"="false" "use-soft-float"="false" }
attributes #2 = { nounwind "disable-tail-calls"="false" "less-precise-fpmad"="false" "no-frame-pointer-elim"="true" "no-frame-pointer-elim-non-leaf" "no-infs-fp-math"="false" "no-nans-fp-math"="false" "no-signed-zeros-fp-math"="false" "stack-protector-buffer-size"="8" "target-cpu"="cortex-a9" "target-features"="+dsp,+vfp3,-crypto,-d16,-fp-armv8,-fp-only-sp,-fp16,-neon,-vfp4" "unsafe-fp-math"="false" "use-soft-float"="false" }
attributes #3 = { nounwind }
attributes #4 = { nounwind "disable-tail-calls"="false" "less-precise-fpmad"="false" "no-frame-pointer-elim"="true" "no-frame-pointer-elim-non-leaf" "no-infs-fp-math"="false" "no-jump-tables"="false" "no-nans-fp-math"="false" "no-signed-zeros-fp-math"="false" "stack-protector-buffer-size"="8" "target-cpu"="cortex-a9" "target-features"="+dsp,+vfp3,-crypto,-d16,-fp-armv8,-fp-only-sp,-fp16,-neon,-vfp4" "unsafe-fp-math"="false" "use-soft-float"="false" }
attributes #5 = { nounwind readnone }
attributes #6 = { noinline noreturn nounwind }
attributes #7 = { inlinehint "disable-tail-calls"="false" "less-precise-fpmad"="false" "no-frame-pointer-elim"="true" "no-frame-pointer-elim-non-leaf" "no-infs-fp-math"="false" "no-jump-tables"="false" "no-nans-fp-math"="false" "no-signed-zeros-fp-math"="false" "stack-protector-buffer-size"="8" "target-cpu"="cortex-a9" "target-features"="+dsp,+vfp3,-crypto,-d16,-fp-armv8,-fp-only-sp,-fp16,-neon,-vfp4" "unsafe-fp-math"="false" "use-soft-float"="false" }
attributes #8 = { inlinehint nounwind "disable-tail-calls"="false" "less-precise-fpmad"="false" "no-frame-pointer-elim"="true" "no-frame-pointer-elim-non-leaf" "no-infs-fp-math"="false" "no-jump-tables"="false" "no-nans-fp-math"="false" "no-signed-zeros-fp-math"="false" "stack-protector-buffer-size"="8" "target-cpu"="cortex-a9" "target-features"="+dsp,+vfp3,-crypto,-d16,-fp-armv8,-fp-only-sp,-fp16,-neon,-vfp4" "unsafe-fp-math"="false" "use-soft-float"="false" }
attributes #9 = { argmemonly nounwind }
attributes #10 = { noreturn "disable-tail-calls"="false" "less-precise-fpmad"="false" "no-frame-pointer-elim"="true" "no-frame-pointer-elim-non-leaf" "no-infs-fp-math"="false" "no-nans-fp-math"="false" "no-signed-zeros-fp-math"="false" "stack-protector-buffer-size"="8" "target-cpu"="cortex-a9" "target-features"="+dsp,+vfp3,-crypto,-d16,-fp-armv8,-fp-only-sp,-fp16,-neon,-vfp4" "unsafe-fp-math"="false" "use-soft-float"="false" }
attributes #11 = { nobuiltin "disable-tail-calls"="false" "less-precise-fpmad"="false" "no-frame-pointer-elim"="true" "no-frame-pointer-elim-non-leaf" "no-infs-fp-math"="false" "no-nans-fp-math"="false" "no-signed-zeros-fp-math"="false" "stack-protector-buffer-size"="8" "target-cpu"="cortex-a9" "target-features"="+dsp,+vfp3,-crypto,-d16,-fp-armv8,-fp-only-sp,-fp16,-neon,-vfp4" "unsafe-fp-math"="false" "use-soft-float"="false" }
attributes #12 = { nobuiltin nounwind "disable-tail-calls"="false" "less-precise-fpmad"="false" "no-frame-pointer-elim"="true" "no-frame-pointer-elim-non-leaf" "no-infs-fp-math"="false" "no-nans-fp-math"="false" "no-signed-zeros-fp-math"="false" "stack-protector-buffer-size"="8" "target-cpu"="cortex-a9" "target-features"="+dsp,+vfp3,-crypto,-d16,-fp-armv8,-fp-only-sp,-fp16,-neon,-vfp4" "unsafe-fp-math"="false" "use-soft-float"="false" }
attributes #13 = { noreturn }
attributes #14 = { noreturn nounwind }
attributes #15 = { builtin nounwind }

!llvm.dbg.cu = !{!0}
!llvm.module.flags = !{!1625, !1626, !1627, !1628, !1629}
!llvm.ident = !{!1630}

!0 = distinct !DICompileUnit(language: DW_LANG_C_plus_plus, file: !1, producer: "clang version 3.9.0 (tags/RELEASE_390/final)", isOptimized: false, runtimeVersion: 0, emissionKind: FullDebug, enums: !2, retainedTypes: !419, globals: !423, imports: !720)
!1 = !DIFile(filename: "/home/sdsoc/yc_ws/sdx_ws/proj/YOLO-master/cpp/HGUFPGAConv/HGUConv_0/src/kernel.cpp", directory: "/home/sdsoc/yc_ws/sdx_ws/proj/YOLO-master/cpp/HGUFPGAConv/HGUConv_0/build/zed_linux_hw")
!2 = !{!3, !15, !407}
!3 = !DICompositeType(tag: DW_TAG_enumeration_type, scope: !5, file: !4, line: 104, size: 32, align: 32, elements: !13, identifier: "_ZTSNSt10__are_sameIPfS0_EUt_E")
!4 = !DIFile(filename: "/opt/Xilinx/SDK/2018.2/gnu/aarch32/lin/gcc-arm-linux-gnueabi/arm-linux-gnueabihf/include/c++/7.2.1/bits/cpp_type_traits.h", directory: "/home/sdsoc/yc_ws/sdx_ws/proj/YOLO-master/cpp/HGUFPGAConv/HGUConv_0/build/zed_linux_hw")
!5 = distinct !DICompositeType(tag: DW_TAG_structure_type, name: "__are_same<float *, float *>", scope: !6, file: !4, line: 102, size: 8, align: 8, elements: !8, templateParams: !9, identifier: "_ZTSSt10__are_sameIPfS0_E")
!6 = !DINamespace(name: "std", scope: null, file: !7, line: 229)
!7 = !DIFile(filename: "/opt/Xilinx/SDK/2018.2/gnu/aarch32/lin/gcc-arm-linux-gnueabi/arm-linux-gnueabihf/include/c++/7.2.1/arm-linux-gnueabihf/bits/c++config.h", directory: "/home/sdsoc/yc_ws/sdx_ws/proj/YOLO-master/cpp/HGUFPGAConv/HGUConv_0/build/zed_linux_hw")
!8 = !{}
!9 = !{!10, !10}
!10 = !DITemplateTypeParameter(type: !11)
!11 = !DIDerivedType(tag: DW_TAG_pointer_type, baseType: !12, size: 32, align: 32)
!12 = !DIBasicType(name: "float", size: 32, align: 32, encoding: DW_ATE_float)
!13 = !{!14}
!14 = !DIEnumerator(name: "__value", value: 1)
!15 = !DICompositeType(tag: DW_TAG_enumeration_type, scope: !17, file: !16, line: 631, size: 32, align: 32, elements: !405, identifier: "_ZTSNSt11_Deque_baseIfSaIfEEUt_E")
!16 = !DIFile(filename: "/opt/Xilinx/SDK/2018.2/gnu/aarch32/lin/gcc-arm-linux-gnueabi/arm-linux-gnueabihf/include/c++/7.2.1/bits/stl_deque.h", directory: "/home/sdsoc/yc_ws/sdx_ws/proj/YOLO-master/cpp/HGUFPGAConv/HGUConv_0/build/zed_linux_hw")
!17 = distinct !DICompositeType(tag: DW_TAG_class_type, name: "_Deque_base<float, std::allocator<float> >", scope: !6, file: !16, line: 460, size: 320, align: 32, elements: !18, templateParams: !404, identifier: "_ZTSSt11_Deque_baseIfSaIfEE")
!18 = !{!19, !253, !259, !263, !266, !271, !274, !292, !307, !310, !315, !316, !320, !323, !382, !387, !390, !393, !396, !397, !400, !401}
!19 = !DIDerivedType(tag: DW_TAG_member, name: "_M_impl", scope: !17, file: !16, line: 633, baseType: !20, size: 320, align: 32, flags: DIFlagProtected)
!20 = distinct !DICompositeType(tag: DW_TAG_structure_type, name: "_Deque_impl", scope: !17, file: !16, line: 549, size: 320, align: 32, elements: !21, identifier: "_ZTSNSt11_Deque_baseIfSaIfEE11_Deque_implE")
!21 = !{!22, !135, !228, !229, !231, !232, !236, !241, !245, !249}
!22 = !DIDerivedType(tag: DW_TAG_inheritance, scope: !20, baseType: !23)
!23 = !DIDerivedType(tag: DW_TAG_typedef, name: "_Tp_alloc_type", scope: !17, file: !16, line: 464, baseType: !24)
!24 = !DIDerivedType(tag: DW_TAG_typedef, name: "other", scope: !26, file: !25, line: 117, baseType: !134)
!25 = !DIFile(filename: "/opt/Xilinx/SDK/2018.2/gnu/aarch32/lin/gcc-arm-linux-gnueabi/arm-linux-gnueabihf/include/c++/7.2.1/ext/alloc_traits.h", directory: "/home/sdsoc/yc_ws/sdx_ws/proj/YOLO-master/cpp/HGUFPGAConv/HGUConv_0/build/zed_linux_hw")
!26 = distinct !DICompositeType(tag: DW_TAG_structure_type, name: "rebind<float>", scope: !27, file: !25, line: 116, size: 8, align: 8, elements: !8, templateParams: !88, identifier: "_ZTSN9__gnu_cxx14__alloc_traitsISaIfEE6rebindIfEE")
!27 = distinct !DICompositeType(tag: DW_TAG_structure_type, name: "__alloc_traits<std::allocator<float> >", scope: !28, file: !25, line: 50, size: 8, align: 8, elements: !29, templateParams: !117, identifier: "_ZTSN9__gnu_cxx14__alloc_traitsISaIfEEE")
!28 = !DINamespace(name: "__gnu_cxx", scope: null, file: !7, line: 255)
!29 = !{!30, !119, !122, !126, !130, !131, !132, !133}
!30 = !DIDerivedType(tag: DW_TAG_inheritance, scope: !27, baseType: !31)
!31 = distinct !DICompositeType(tag: DW_TAG_structure_type, name: "allocator_traits<std::allocator<float> >", scope: !6, file: !32, line: 384, size: 8, align: 8, elements: !33, templateParams: !117, identifier: "_ZTSSt16allocator_traitsISaIfEE")
!32 = !DIFile(filename: "/opt/Xilinx/SDK/2018.2/gnu/aarch32/lin/gcc-arm-linux-gnueabi/arm-linux-gnueabihf/include/c++/7.2.1/bits/alloc_traits.h", directory: "/home/sdsoc/yc_ws/sdx_ws/proj/YOLO-master/cpp/HGUFPGAConv/HGUConv_0/build/zed_linux_hw")
!33 = !{!34, !101, !105, !108, !114}
!34 = !DISubprogram(name: "allocate", linkageName: "_ZNSt16allocator_traitsISaIfEE8allocateERS0_j", scope: !31, file: !32, line: 435, type: !35, isLocal: false, isDefinition: false, scopeLine: 435, flags: DIFlagPrototyped, isOptimized: false)
!35 = !DISubroutineType(types: !36)
!36 = !{!37, !38, !100}
!37 = !DIDerivedType(tag: DW_TAG_typedef, name: "pointer", scope: !31, file: !32, line: 392, baseType: !11)
!38 = !DIDerivedType(tag: DW_TAG_reference_type, baseType: !39, size: 32, align: 32)
!39 = !DIDerivedType(tag: DW_TAG_typedef, name: "allocator_type", scope: !31, file: !32, line: 387, baseType: !40)
!40 = distinct !DICompositeType(tag: DW_TAG_class_type, name: "allocator<float>", scope: !6, file: !41, line: 108, size: 8, align: 8, elements: !42, templateParams: !88, identifier: "_ZTSSaIfE")
!41 = !DIFile(filename: "/opt/Xilinx/SDK/2018.2/gnu/aarch32/lin/gcc-arm-linux-gnueabi/arm-linux-gnueabihf/include/c++/7.2.1/bits/allocator.h", directory: "/home/sdsoc/yc_ws/sdx_ws/proj/YOLO-master/cpp/HGUFPGAConv/HGUConv_0/build/zed_linux_hw")
!42 = !{!43, !90, !94, !99}
!43 = !DIDerivedType(tag: DW_TAG_inheritance, scope: !40, baseType: !44, flags: DIFlagPublic)
!44 = !DIDerivedType(tag: DW_TAG_typedef, name: "__allocator_base<float>", scope: !6, file: !45, line: 48, baseType: !46)
!45 = !DIFile(filename: "/opt/Xilinx/SDK/2018.2/gnu/aarch32/lin/gcc-arm-linux-gnueabi/arm-linux-gnueabihf/include/c++/7.2.1/arm-linux-gnueabihf/bits/c++allocator.h", directory: "/home/sdsoc/yc_ws/sdx_ws/proj/YOLO-master/cpp/HGUFPGAConv/HGUConv_0/build/zed_linux_hw")
!46 = distinct !DICompositeType(tag: DW_TAG_class_type, name: "new_allocator<float>", scope: !28, file: !47, line: 58, size: 8, align: 8, elements: !48, templateParams: !88, identifier: "_ZTSN9__gnu_cxx13new_allocatorIfEE")
!47 = !DIFile(filename: "/opt/Xilinx/SDK/2018.2/gnu/aarch32/lin/gcc-arm-linux-gnueabi/arm-linux-gnueabihf/include/c++/7.2.1/ext/new_allocator.h", directory: "/home/sdsoc/yc_ws/sdx_ws/proj/YOLO-master/cpp/HGUFPGAConv/HGUConv_0/build/zed_linux_hw")
!48 = !{!49, !53, !58, !59, !66, !74, !82, !85}
!49 = !DISubprogram(name: "new_allocator", scope: !46, file: !47, line: 79, type: !50, isLocal: false, isDefinition: false, scopeLine: 79, flags: DIFlagPublic | DIFlagPrototyped, isOptimized: false)
!50 = !DISubroutineType(types: !51)
!51 = !{null, !52}
!52 = !DIDerivedType(tag: DW_TAG_pointer_type, baseType: !46, size: 32, align: 32, flags: DIFlagArtificial | DIFlagObjectPointer)
!53 = !DISubprogram(name: "new_allocator", scope: !46, file: !47, line: 81, type: !54, isLocal: false, isDefinition: false, scopeLine: 81, flags: DIFlagPublic | DIFlagPrototyped, isOptimized: false)
!54 = !DISubroutineType(types: !55)
!55 = !{null, !52, !56}
!56 = !DIDerivedType(tag: DW_TAG_reference_type, baseType: !57, size: 32, align: 32)
!57 = !DIDerivedType(tag: DW_TAG_const_type, baseType: !46)
!58 = !DISubprogram(name: "~new_allocator", scope: !46, file: !47, line: 86, type: !50, isLocal: false, isDefinition: false, scopeLine: 86, flags: DIFlagPublic | DIFlagPrototyped, isOptimized: false)
!59 = !DISubprogram(name: "address", linkageName: "_ZNK9__gnu_cxx13new_allocatorIfE7addressERf", scope: !46, file: !47, line: 89, type: !60, isLocal: false, isDefinition: false, scopeLine: 89, flags: DIFlagPublic | DIFlagPrototyped, isOptimized: false)
!60 = !DISubroutineType(types: !61)
!61 = !{!62, !63, !64}
!62 = !DIDerivedType(tag: DW_TAG_typedef, name: "pointer", scope: !46, file: !47, line: 63, baseType: !11)
!63 = !DIDerivedType(tag: DW_TAG_pointer_type, baseType: !57, size: 32, align: 32, flags: DIFlagArtificial | DIFlagObjectPointer)
!64 = !DIDerivedType(tag: DW_TAG_typedef, name: "reference", scope: !46, file: !47, line: 65, baseType: !65)
!65 = !DIDerivedType(tag: DW_TAG_reference_type, baseType: !12, size: 32, align: 32)
!66 = !DISubprogram(name: "address", linkageName: "_ZNK9__gnu_cxx13new_allocatorIfE7addressERKf", scope: !46, file: !47, line: 93, type: !67, isLocal: false, isDefinition: false, scopeLine: 93, flags: DIFlagPublic | DIFlagPrototyped, isOptimized: false)
!67 = !DISubroutineType(types: !68)
!68 = !{!69, !63, !72}
!69 = !DIDerivedType(tag: DW_TAG_typedef, name: "const_pointer", scope: !46, file: !47, line: 64, baseType: !70)
!70 = !DIDerivedType(tag: DW_TAG_pointer_type, baseType: !71, size: 32, align: 32)
!71 = !DIDerivedType(tag: DW_TAG_const_type, baseType: !12)
!72 = !DIDerivedType(tag: DW_TAG_typedef, name: "const_reference", scope: !46, file: !47, line: 66, baseType: !73)
!73 = !DIDerivedType(tag: DW_TAG_reference_type, baseType: !71, size: 32, align: 32)
!74 = !DISubprogram(name: "allocate", linkageName: "_ZN9__gnu_cxx13new_allocatorIfE8allocateEjPKv", scope: !46, file: !47, line: 99, type: !75, isLocal: false, isDefinition: false, scopeLine: 99, flags: DIFlagPublic | DIFlagPrototyped, isOptimized: false)
!75 = !DISubroutineType(types: !76)
!76 = !{!62, !52, !77, !80}
!77 = !DIDerivedType(tag: DW_TAG_typedef, name: "size_type", file: !47, line: 61, baseType: !78)
!78 = !DIDerivedType(tag: DW_TAG_typedef, name: "size_t", scope: !6, file: !7, line: 231, baseType: !79)
!79 = !DIBasicType(name: "unsigned int", size: 32, align: 32, encoding: DW_ATE_unsigned)
!80 = !DIDerivedType(tag: DW_TAG_pointer_type, baseType: !81, size: 32, align: 32)
!81 = !DIDerivedType(tag: DW_TAG_const_type, baseType: null)
!82 = !DISubprogram(name: "deallocate", linkageName: "_ZN9__gnu_cxx13new_allocatorIfE10deallocateEPfj", scope: !46, file: !47, line: 116, type: !83, isLocal: false, isDefinition: false, scopeLine: 116, flags: DIFlagPublic | DIFlagPrototyped, isOptimized: false)
!83 = !DISubroutineType(types: !84)
!84 = !{null, !52, !62, !77}
!85 = !DISubprogram(name: "max_size", linkageName: "_ZNK9__gnu_cxx13new_allocatorIfE8max_sizeEv", scope: !46, file: !47, line: 129, type: !86, isLocal: false, isDefinition: false, scopeLine: 129, flags: DIFlagPublic | DIFlagPrototyped, isOptimized: false)
!86 = !DISubroutineType(types: !87)
!87 = !{!77, !63}
!88 = !{!89}
!89 = !DITemplateTypeParameter(name: "_Tp", type: !12)
!90 = !DISubprogram(name: "allocator", scope: !40, file: !41, line: 131, type: !91, isLocal: false, isDefinition: false, scopeLine: 131, flags: DIFlagPublic | DIFlagPrototyped, isOptimized: false)
!91 = !DISubroutineType(types: !92)
!92 = !{null, !93}
!93 = !DIDerivedType(tag: DW_TAG_pointer_type, baseType: !40, size: 32, align: 32, flags: DIFlagArtificial | DIFlagObjectPointer)
!94 = !DISubprogram(name: "allocator", scope: !40, file: !41, line: 133, type: !95, isLocal: false, isDefinition: false, scopeLine: 133, flags: DIFlagPublic | DIFlagPrototyped, isOptimized: false)
!95 = !DISubroutineType(types: !96)
!96 = !{null, !93, !97}
!97 = !DIDerivedType(tag: DW_TAG_reference_type, baseType: !98, size: 32, align: 32)
!98 = !DIDerivedType(tag: DW_TAG_const_type, baseType: !40)
!99 = !DISubprogram(name: "~allocator", scope: !40, file: !41, line: 139, type: !91, isLocal: false, isDefinition: false, scopeLine: 139, flags: DIFlagPublic | DIFlagPrototyped, isOptimized: false)
!100 = !DIDerivedType(tag: DW_TAG_typedef, name: "size_type", file: !32, line: 407, baseType: !78)
!101 = !DISubprogram(name: "allocate", linkageName: "_ZNSt16allocator_traitsISaIfEE8allocateERS0_jPKv", scope: !31, file: !32, line: 449, type: !102, isLocal: false, isDefinition: false, scopeLine: 449, flags: DIFlagPrototyped, isOptimized: false)
!102 = !DISubroutineType(types: !103)
!103 = !{!37, !38, !100, !104}
!104 = !DIDerivedType(tag: DW_TAG_typedef, name: "const_void_pointer", file: !32, line: 401, baseType: !80)
!105 = !DISubprogram(name: "deallocate", linkageName: "_ZNSt16allocator_traitsISaIfEE10deallocateERS0_Pfj", scope: !31, file: !32, line: 461, type: !106, isLocal: false, isDefinition: false, scopeLine: 461, flags: DIFlagPrototyped, isOptimized: false)
!106 = !DISubroutineType(types: !107)
!107 = !{null, !38, !37, !100}
!108 = !DISubprogram(name: "max_size", linkageName: "_ZNSt16allocator_traitsISaIfEE8max_sizeERKS0_", scope: !31, file: !32, line: 495, type: !109, isLocal: false, isDefinition: false, scopeLine: 495, flags: DIFlagPrototyped, isOptimized: false)
!109 = !DISubroutineType(types: !110)
!110 = !{!111, !112}
!111 = !DIDerivedType(tag: DW_TAG_typedef, name: "size_type", scope: !31, file: !32, line: 407, baseType: !78)
!112 = !DIDerivedType(tag: DW_TAG_reference_type, baseType: !113, size: 32, align: 32)
!113 = !DIDerivedType(tag: DW_TAG_const_type, baseType: !39)
!114 = !DISubprogram(name: "select_on_container_copy_construction", linkageName: "_ZNSt16allocator_traitsISaIfEE37select_on_container_copy_constructionERKS0_", scope: !31, file: !32, line: 504, type: !115, isLocal: false, isDefinition: false, scopeLine: 504, flags: DIFlagPrototyped, isOptimized: false)
!115 = !DISubroutineType(types: !116)
!116 = !{!39, !112}
!117 = !{!118}
!118 = !DITemplateTypeParameter(name: "_Alloc", type: !40)
!119 = !DISubprogram(name: "_S_select_on_copy", linkageName: "_ZN9__gnu_cxx14__alloc_traitsISaIfEE17_S_select_on_copyERKS1_", scope: !27, file: !25, line: 94, type: !120, isLocal: false, isDefinition: false, scopeLine: 94, flags: DIFlagPrototyped, isOptimized: false)
!120 = !DISubroutineType(types: !121)
!121 = !{!40, !97}
!122 = !DISubprogram(name: "_S_on_swap", linkageName: "_ZN9__gnu_cxx14__alloc_traitsISaIfEE10_S_on_swapERS1_S3_", scope: !27, file: !25, line: 97, type: !123, isLocal: false, isDefinition: false, scopeLine: 97, flags: DIFlagPrototyped, isOptimized: false)
!123 = !DISubroutineType(types: !124)
!124 = !{null, !125, !125}
!125 = !DIDerivedType(tag: DW_TAG_reference_type, baseType: !40, size: 32, align: 32)
!126 = !DISubprogram(name: "_S_propagate_on_copy_assign", linkageName: "_ZN9__gnu_cxx14__alloc_traitsISaIfEE27_S_propagate_on_copy_assignEv", scope: !27, file: !25, line: 100, type: !127, isLocal: false, isDefinition: false, scopeLine: 100, flags: DIFlagPrototyped, isOptimized: false)
!127 = !DISubroutineType(types: !128)
!128 = !{!129}
!129 = !DIBasicType(name: "bool", size: 8, align: 8, encoding: DW_ATE_boolean)
!130 = !DISubprogram(name: "_S_propagate_on_move_assign", linkageName: "_ZN9__gnu_cxx14__alloc_traitsISaIfEE27_S_propagate_on_move_assignEv", scope: !27, file: !25, line: 103, type: !127, isLocal: false, isDefinition: false, scopeLine: 103, flags: DIFlagPrototyped, isOptimized: false)
!131 = !DISubprogram(name: "_S_propagate_on_swap", linkageName: "_ZN9__gnu_cxx14__alloc_traitsISaIfEE20_S_propagate_on_swapEv", scope: !27, file: !25, line: 106, type: !127, isLocal: false, isDefinition: false, scopeLine: 106, flags: DIFlagPrototyped, isOptimized: false)
!132 = !DISubprogram(name: "_S_always_equal", linkageName: "_ZN9__gnu_cxx14__alloc_traitsISaIfEE15_S_always_equalEv", scope: !27, file: !25, line: 109, type: !127, isLocal: false, isDefinition: false, scopeLine: 109, flags: DIFlagPrototyped, isOptimized: false)
!133 = !DISubprogram(name: "_S_nothrow_move", linkageName: "_ZN9__gnu_cxx14__alloc_traitsISaIfEE15_S_nothrow_moveEv", scope: !27, file: !25, line: 112, type: !127, isLocal: false, isDefinition: false, scopeLine: 112, flags: DIFlagPrototyped, isOptimized: false)
!134 = !DIDerivedType(tag: DW_TAG_typedef, name: "rebind_alloc<float>", scope: !31, file: !32, line: 422, baseType: !40)
!135 = !DIDerivedType(tag: DW_TAG_member, name: "_M_map", scope: !20, file: !16, line: 552, baseType: !136, size: 32, align: 32)
!136 = !DIDerivedType(tag: DW_TAG_typedef, name: "_Map_pointer", scope: !17, file: !16, line: 544, baseType: !137)
!137 = !DIDerivedType(tag: DW_TAG_typedef, name: "_Map_pointer", scope: !138, file: !16, line: 125, baseType: !225)
!138 = distinct !DICompositeType(tag: DW_TAG_structure_type, name: "_Deque_iterator<float, float &, float *>", scope: !6, file: !16, line: 108, size: 128, align: 32, elements: !139, templateParams: !223, identifier: "_ZTSSt15_Deque_iteratorIfRfPfE")
!139 = !{!140, !163, !164, !165, !166, !169, !173, !176, !183, !188, !192, !196, !201, !205, !206, !207, !212, !215, !216, !217, !220}
!140 = !DIDerivedType(tag: DW_TAG_member, name: "_M_cur", scope: !138, file: !16, line: 139, baseType: !141, size: 32, align: 32)
!141 = !DIDerivedType(tag: DW_TAG_typedef, name: "_Elt_pointer", scope: !138, file: !16, line: 124, baseType: !142)
!142 = !DIDerivedType(tag: DW_TAG_typedef, name: "__ptr_to<float>", scope: !138, file: !16, line: 118, baseType: !143)
!143 = !DIDerivedType(tag: DW_TAG_typedef, name: "rebind<float>", scope: !145, file: !144, line: 133, baseType: !11)
!144 = !DIFile(filename: "/opt/Xilinx/SDK/2018.2/gnu/aarch32/lin/gcc-arm-linux-gnueabi/arm-linux-gnueabihf/include/c++/7.2.1/bits/ptr_traits.h", directory: "/home/sdsoc/yc_ws/sdx_ws/proj/YOLO-master/cpp/HGUFPGAConv/HGUConv_0/build/zed_linux_hw")
!145 = distinct !DICompositeType(tag: DW_TAG_structure_type, name: "pointer_traits<float *>", scope: !6, file: !144, line: 123, size: 8, align: 8, elements: !146, templateParams: !161, identifier: "_ZTSSt14pointer_traitsIPfE")
!146 = !{!147}
!147 = !DISubprogram(name: "pointer_to", linkageName: "_ZNSt14pointer_traitsIPfE10pointer_toERf", scope: !145, file: !144, line: 141, type: !148, isLocal: false, isDefinition: false, scopeLine: 141, flags: DIFlagPrototyped, isOptimized: false)
!148 = !DISubroutineType(types: !149)
!149 = !{!150, !151}
!150 = !DIDerivedType(tag: DW_TAG_typedef, name: "pointer", scope: !145, file: !144, line: 126, baseType: !11)
!151 = !DIDerivedType(tag: DW_TAG_reference_type, baseType: !152, size: 32, align: 32)
!152 = !DIDerivedType(tag: DW_TAG_typedef, name: "__make_not_void<element_type>", scope: !6, file: !144, line: 70, baseType: !153)
!153 = !DIDerivedType(tag: DW_TAG_typedef, name: "type", scope: !155, file: !154, line: 2174, baseType: !12)
!154 = !DIFile(filename: "/opt/Xilinx/SDK/2018.2/gnu/aarch32/lin/gcc-arm-linux-gnueabi/arm-linux-gnueabihf/include/c++/7.2.1/type_traits", directory: "/home/sdsoc/yc_ws/sdx_ws/proj/YOLO-master/cpp/HGUFPGAConv/HGUConv_0/build/zed_linux_hw")
!155 = distinct !DICompositeType(tag: DW_TAG_structure_type, name: "conditional<false, std::__undefined, float>", scope: !6, file: !154, line: 2173, size: 8, align: 8, elements: !8, templateParams: !156, identifier: "_ZTSSt11conditionalILb0ESt11__undefinedfE")
!156 = !{!157, !158, !160}
!157 = !DITemplateValueParameter(name: "_Cond", type: !129, value: i8 0)
!158 = !DITemplateTypeParameter(name: "_Iftrue", type: !159)
!159 = !DICompositeType(tag: DW_TAG_class_type, name: "__undefined", scope: !6, file: !144, line: 41, flags: DIFlagFwdDecl, identifier: "_ZTSSt11__undefined")
!160 = !DITemplateTypeParameter(name: "_Iffalse", type: !12)
!161 = !{!162}
!162 = !DITemplateTypeParameter(name: "_Ptr", type: !11)
!163 = !DIDerivedType(tag: DW_TAG_member, name: "_M_first", scope: !138, file: !16, line: 140, baseType: !141, size: 32, align: 32, offset: 32)
!164 = !DIDerivedType(tag: DW_TAG_member, name: "_M_last", scope: !138, file: !16, line: 141, baseType: !141, size: 32, align: 32, offset: 64)
!165 = !DIDerivedType(tag: DW_TAG_member, name: "_M_node", scope: !138, file: !16, line: 142, baseType: !137, size: 32, align: 32, offset: 96)
!166 = !DISubprogram(name: "_S_buffer_size", linkageName: "_ZNSt15_Deque_iteratorIfRfPfE14_S_buffer_sizeEv", scope: !138, file: !16, line: 128, type: !167, isLocal: false, isDefinition: false, scopeLine: 128, flags: DIFlagPrototyped, isOptimized: false)
!167 = !DISubroutineType(types: !168)
!168 = !{!78}
!169 = !DISubprogram(name: "_Deque_iterator", scope: !138, file: !16, line: 144, type: !170, isLocal: false, isDefinition: false, scopeLine: 144, flags: DIFlagPrototyped, isOptimized: false)
!170 = !DISubroutineType(types: !171)
!171 = !{null, !172, !141, !137}
!172 = !DIDerivedType(tag: DW_TAG_pointer_type, baseType: !138, size: 32, align: 32, flags: DIFlagArtificial | DIFlagObjectPointer)
!173 = !DISubprogram(name: "_Deque_iterator", scope: !138, file: !16, line: 148, type: !174, isLocal: false, isDefinition: false, scopeLine: 148, flags: DIFlagPrototyped, isOptimized: false)
!174 = !DISubroutineType(types: !175)
!175 = !{null, !172}
!176 = !DISubprogram(name: "_Deque_iterator", scope: !138, file: !16, line: 151, type: !177, isLocal: false, isDefinition: false, scopeLine: 151, flags: DIFlagPrototyped, isOptimized: false)
!177 = !DISubroutineType(types: !178)
!178 = !{null, !172, !179}
!179 = !DIDerivedType(tag: DW_TAG_reference_type, baseType: !180, size: 32, align: 32)
!180 = !DIDerivedType(tag: DW_TAG_const_type, baseType: !181)
!181 = !DIDerivedType(tag: DW_TAG_typedef, name: "iterator", scope: !138, file: !16, line: 122, baseType: !182)
!182 = !DIDerivedType(tag: DW_TAG_typedef, name: "__iter<float>", scope: !138, file: !16, line: 120, baseType: !138)
!183 = !DISubprogram(name: "_M_const_cast", linkageName: "_ZNKSt15_Deque_iteratorIfRfPfE13_M_const_castEv", scope: !138, file: !16, line: 156, type: !184, isLocal: false, isDefinition: false, scopeLine: 156, flags: DIFlagPrototyped, isOptimized: false)
!184 = !DISubroutineType(types: !185)
!185 = !{!181, !186}
!186 = !DIDerivedType(tag: DW_TAG_pointer_type, baseType: !187, size: 32, align: 32, flags: DIFlagArtificial | DIFlagObjectPointer)
!187 = !DIDerivedType(tag: DW_TAG_const_type, baseType: !138)
!188 = !DISubprogram(name: "operator*", linkageName: "_ZNKSt15_Deque_iteratorIfRfPfEdeEv", scope: !138, file: !16, line: 160, type: !189, isLocal: false, isDefinition: false, scopeLine: 160, flags: DIFlagPrototyped, isOptimized: false)
!189 = !DISubroutineType(types: !190)
!190 = !{!191, !186}
!191 = !DIDerivedType(tag: DW_TAG_typedef, name: "reference", scope: !138, file: !16, line: 134, baseType: !65)
!192 = !DISubprogram(name: "operator->", linkageName: "_ZNKSt15_Deque_iteratorIfRfPfEptEv", scope: !138, file: !16, line: 164, type: !193, isLocal: false, isDefinition: false, scopeLine: 164, flags: DIFlagPrototyped, isOptimized: false)
!193 = !DISubroutineType(types: !194)
!194 = !{!195, !186}
!195 = !DIDerivedType(tag: DW_TAG_typedef, name: "pointer", scope: !138, file: !16, line: 133, baseType: !11)
!196 = !DISubprogram(name: "operator++", linkageName: "_ZNSt15_Deque_iteratorIfRfPfEppEv", scope: !138, file: !16, line: 168, type: !197, isLocal: false, isDefinition: false, scopeLine: 168, flags: DIFlagPrototyped, isOptimized: false)
!197 = !DISubroutineType(types: !198)
!198 = !{!199, !172}
!199 = !DIDerivedType(tag: DW_TAG_reference_type, baseType: !200, size: 32, align: 32)
!200 = !DIDerivedType(tag: DW_TAG_typedef, name: "_Self", scope: !138, file: !16, line: 137, baseType: !138)
!201 = !DISubprogram(name: "operator++", linkageName: "_ZNSt15_Deque_iteratorIfRfPfEppEi", scope: !138, file: !16, line: 180, type: !202, isLocal: false, isDefinition: false, scopeLine: 180, flags: DIFlagPrototyped, isOptimized: false)
!202 = !DISubroutineType(types: !203)
!203 = !{!200, !172, !204}
!204 = !DIBasicType(name: "int", size: 32, align: 32, encoding: DW_ATE_signed)
!205 = !DISubprogram(name: "operator--", linkageName: "_ZNSt15_Deque_iteratorIfRfPfEmmEv", scope: !138, file: !16, line: 188, type: !197, isLocal: false, isDefinition: false, scopeLine: 188, flags: DIFlagPrototyped, isOptimized: false)
!206 = !DISubprogram(name: "operator--", linkageName: "_ZNSt15_Deque_iteratorIfRfPfEmmEi", scope: !138, file: !16, line: 200, type: !202, isLocal: false, isDefinition: false, scopeLine: 200, flags: DIFlagPrototyped, isOptimized: false)
!207 = !DISubprogram(name: "operator+=", linkageName: "_ZNSt15_Deque_iteratorIfRfPfEpLEi", scope: !138, file: !16, line: 208, type: !208, isLocal: false, isDefinition: false, scopeLine: 208, flags: DIFlagPrototyped, isOptimized: false)
!208 = !DISubroutineType(types: !209)
!209 = !{!199, !172, !210}
!210 = !DIDerivedType(tag: DW_TAG_typedef, name: "difference_type", file: !16, line: 136, baseType: !211)
!211 = !DIDerivedType(tag: DW_TAG_typedef, name: "ptrdiff_t", scope: !6, file: !7, line: 232, baseType: !204)
!212 = !DISubprogram(name: "operator+", linkageName: "_ZNKSt15_Deque_iteratorIfRfPfEplEi", scope: !138, file: !16, line: 227, type: !213, isLocal: false, isDefinition: false, scopeLine: 227, flags: DIFlagPrototyped, isOptimized: false)
!213 = !DISubroutineType(types: !214)
!214 = !{!200, !186, !210}
!215 = !DISubprogram(name: "operator-=", linkageName: "_ZNSt15_Deque_iteratorIfRfPfEmIEi", scope: !138, file: !16, line: 234, type: !208, isLocal: false, isDefinition: false, scopeLine: 234, flags: DIFlagPrototyped, isOptimized: false)
!216 = !DISubprogram(name: "operator-", linkageName: "_ZNKSt15_Deque_iteratorIfRfPfEmiEi", scope: !138, file: !16, line: 238, type: !213, isLocal: false, isDefinition: false, scopeLine: 238, flags: DIFlagPrototyped, isOptimized: false)
!217 = !DISubprogram(name: "operator[]", linkageName: "_ZNKSt15_Deque_iteratorIfRfPfEixEi", scope: !138, file: !16, line: 245, type: !218, isLocal: false, isDefinition: false, scopeLine: 245, flags: DIFlagPrototyped, isOptimized: false)
!218 = !DISubroutineType(types: !219)
!219 = !{!191, !186, !210}
!220 = !DISubprogram(name: "_M_set_node", linkageName: "_ZNSt15_Deque_iteratorIfRfPfE11_M_set_nodeEPS1_", scope: !138, file: !16, line: 254, type: !221, isLocal: false, isDefinition: false, scopeLine: 254, flags: DIFlagPrototyped, isOptimized: false)
!221 = !DISubroutineType(types: !222)
!222 = !{null, !172, !137}
!223 = !{!89, !224, !162}
!224 = !DITemplateTypeParameter(name: "_Ref", type: !65)
!225 = !DIDerivedType(tag: DW_TAG_typedef, name: "__ptr_to<_Elt_pointer>", scope: !138, file: !16, line: 118, baseType: !226)
!226 = !DIDerivedType(tag: DW_TAG_typedef, name: "rebind<float *>", scope: !145, file: !144, line: 133, baseType: !227)
!227 = !DIDerivedType(tag: DW_TAG_pointer_type, baseType: !11, size: 32, align: 32)
!228 = !DIDerivedType(tag: DW_TAG_member, name: "_M_map_size", scope: !20, file: !16, line: 553, baseType: !78, size: 32, align: 32, offset: 32)
!229 = !DIDerivedType(tag: DW_TAG_member, name: "_M_start", scope: !20, file: !16, line: 554, baseType: !230, size: 128, align: 32, offset: 64)
!230 = !DIDerivedType(tag: DW_TAG_typedef, name: "iterator", scope: !17, file: !16, line: 487, baseType: !138)
!231 = !DIDerivedType(tag: DW_TAG_member, name: "_M_finish", scope: !20, file: !16, line: 555, baseType: !230, size: 128, align: 32, offset: 192)
!232 = !DISubprogram(name: "_Deque_impl", scope: !20, file: !16, line: 557, type: !233, isLocal: false, isDefinition: false, scopeLine: 557, flags: DIFlagPrototyped, isOptimized: false)
!233 = !DISubroutineType(types: !234)
!234 = !{null, !235}
!235 = !DIDerivedType(tag: DW_TAG_pointer_type, baseType: !20, size: 32, align: 32, flags: DIFlagArtificial | DIFlagObjectPointer)
!236 = !DISubprogram(name: "_Deque_impl", scope: !20, file: !16, line: 562, type: !237, isLocal: false, isDefinition: false, scopeLine: 562, flags: DIFlagPrototyped, isOptimized: false)
!237 = !DISubroutineType(types: !238)
!238 = !{null, !235, !239}
!239 = !DIDerivedType(tag: DW_TAG_reference_type, baseType: !240, size: 32, align: 32)
!240 = !DIDerivedType(tag: DW_TAG_const_type, baseType: !23)
!241 = !DISubprogram(name: "_Deque_impl", scope: !20, file: !16, line: 568, type: !242, isLocal: false, isDefinition: false, scopeLine: 568, flags: DIFlagPrototyped, isOptimized: false)
!242 = !DISubroutineType(types: !243)
!243 = !{null, !235, !244}
!244 = !DIDerivedType(tag: DW_TAG_rvalue_reference_type, baseType: !20, size: 32, align: 32)
!245 = !DISubprogram(name: "_Deque_impl", scope: !20, file: !16, line: 570, type: !246, isLocal: false, isDefinition: false, scopeLine: 570, flags: DIFlagPrototyped, isOptimized: false)
!246 = !DISubroutineType(types: !247)
!247 = !{null, !235, !248}
!248 = !DIDerivedType(tag: DW_TAG_rvalue_reference_type, baseType: !23, size: 32, align: 32)
!249 = !DISubprogram(name: "_M_swap_data", linkageName: "_ZNSt11_Deque_baseIfSaIfEE11_Deque_impl12_M_swap_dataERS2_", scope: !20, file: !16, line: 576, type: !250, isLocal: false, isDefinition: false, scopeLine: 576, flags: DIFlagPrototyped, isOptimized: false)
!250 = !DISubroutineType(types: !251)
!251 = !{null, !235, !252}
!252 = !DIDerivedType(tag: DW_TAG_reference_type, baseType: !20, size: 32, align: 32)
!253 = !DISubprogram(name: "get_allocator", linkageName: "_ZNKSt11_Deque_baseIfSaIfEE13get_allocatorEv", scope: !17, file: !16, line: 484, type: !254, isLocal: false, isDefinition: false, scopeLine: 484, flags: DIFlagPublic | DIFlagPrototyped, isOptimized: false)
!254 = !DISubroutineType(types: !255)
!255 = !{!256, !257}
!256 = !DIDerivedType(tag: DW_TAG_typedef, name: "allocator_type", scope: !17, file: !16, line: 480, baseType: !40)
!257 = !DIDerivedType(tag: DW_TAG_pointer_type, baseType: !258, size: 32, align: 32, flags: DIFlagArtificial | DIFlagObjectPointer)
!258 = !DIDerivedType(tag: DW_TAG_const_type, baseType: !17)
!259 = !DISubprogram(name: "_Deque_base", scope: !17, file: !16, line: 490, type: !260, isLocal: false, isDefinition: false, scopeLine: 490, flags: DIFlagPublic | DIFlagPrototyped, isOptimized: false)
!260 = !DISubroutineType(types: !261)
!261 = !{null, !262}
!262 = !DIDerivedType(tag: DW_TAG_pointer_type, baseType: !17, size: 32, align: 32, flags: DIFlagArtificial | DIFlagObjectPointer)
!263 = !DISubprogram(name: "_Deque_base", scope: !17, file: !16, line: 494, type: !264, isLocal: false, isDefinition: false, scopeLine: 494, flags: DIFlagPublic | DIFlagPrototyped, isOptimized: false)
!264 = !DISubroutineType(types: !265)
!265 = !{null, !262, !78}
!266 = !DISubprogram(name: "_Deque_base", scope: !17, file: !16, line: 498, type: !267, isLocal: false, isDefinition: false, scopeLine: 498, flags: DIFlagPublic | DIFlagPrototyped, isOptimized: false)
!267 = !DISubroutineType(types: !268)
!268 = !{null, !262, !269, !78}
!269 = !DIDerivedType(tag: DW_TAG_reference_type, baseType: !270, size: 32, align: 32)
!270 = !DIDerivedType(tag: DW_TAG_const_type, baseType: !256)
!271 = !DISubprogram(name: "_Deque_base", scope: !17, file: !16, line: 502, type: !272, isLocal: false, isDefinition: false, scopeLine: 502, flags: DIFlagPublic | DIFlagPrototyped, isOptimized: false)
!272 = !DISubroutineType(types: !273)
!273 = !{null, !262, !269}
!274 = !DISubprogram(name: "_Deque_base", scope: !17, file: !16, line: 507, type: !275, isLocal: false, isDefinition: false, scopeLine: 507, flags: DIFlagPublic | DIFlagPrototyped, isOptimized: false)
!275 = !DISubroutineType(types: !276)
!276 = !{null, !262, !277, !278}
!277 = !DIDerivedType(tag: DW_TAG_rvalue_reference_type, baseType: !17, size: 32, align: 32)
!278 = !DIDerivedType(tag: DW_TAG_typedef, name: "false_type", scope: !6, file: !154, line: 90, baseType: !279)
!279 = distinct !DICompositeType(tag: DW_TAG_structure_type, name: "integral_constant<bool, false>", scope: !6, file: !154, line: 69, size: 8, align: 8, elements: !280, templateParams: !289, identifier: "_ZTSSt17integral_constantIbLb0EE")
!280 = !{!281, !283}
!281 = !DIDerivedType(tag: DW_TAG_member, name: "value", scope: !279, file: !154, line: 71, baseType: !282, flags: DIFlagStaticMember, extraData: i1 false)
!282 = !DIDerivedType(tag: DW_TAG_const_type, baseType: !129)
!283 = !DISubprogram(name: "operator bool", linkageName: "_ZNKSt17integral_constantIbLb0EEcvbEv", scope: !279, file: !154, line: 74, type: !284, isLocal: false, isDefinition: false, scopeLine: 74, flags: DIFlagPrototyped, isOptimized: false)
!284 = !DISubroutineType(types: !285)
!285 = !{!286, !287}
!286 = !DIDerivedType(tag: DW_TAG_typedef, name: "value_type", scope: !279, file: !154, line: 72, baseType: !129)
!287 = !DIDerivedType(tag: DW_TAG_pointer_type, baseType: !288, size: 32, align: 32, flags: DIFlagArtificial | DIFlagObjectPointer)
!288 = !DIDerivedType(tag: DW_TAG_const_type, baseType: !279)
!289 = !{!290, !291}
!290 = !DITemplateTypeParameter(name: "_Tp", type: !129)
!291 = !DITemplateValueParameter(name: "__v", type: !129, value: i8 0)
!292 = !DISubprogram(name: "_Deque_base", scope: !17, file: !16, line: 511, type: !293, isLocal: false, isDefinition: false, scopeLine: 511, flags: DIFlagPublic | DIFlagPrototyped, isOptimized: false)
!293 = !DISubroutineType(types: !294)
!294 = !{null, !262, !277, !295}
!295 = !DIDerivedType(tag: DW_TAG_typedef, name: "true_type", scope: !6, file: !154, line: 87, baseType: !296)
!296 = distinct !DICompositeType(tag: DW_TAG_structure_type, name: "integral_constant<bool, true>", scope: !6, file: !154, line: 69, size: 8, align: 8, elements: !297, templateParams: !305, identifier: "_ZTSSt17integral_constantIbLb1EE")
!297 = !{!298, !299}
!298 = !DIDerivedType(tag: DW_TAG_member, name: "value", scope: !296, file: !154, line: 71, baseType: !282, flags: DIFlagStaticMember, extraData: i1 true)
!299 = !DISubprogram(name: "operator bool", linkageName: "_ZNKSt17integral_constantIbLb1EEcvbEv", scope: !296, file: !154, line: 74, type: !300, isLocal: false, isDefinition: false, scopeLine: 74, flags: DIFlagPrototyped, isOptimized: false)
!300 = !DISubroutineType(types: !301)
!301 = !{!302, !303}
!302 = !DIDerivedType(tag: DW_TAG_typedef, name: "value_type", scope: !296, file: !154, line: 72, baseType: !129)
!303 = !DIDerivedType(tag: DW_TAG_pointer_type, baseType: !304, size: 32, align: 32, flags: DIFlagArtificial | DIFlagObjectPointer)
!304 = !DIDerivedType(tag: DW_TAG_const_type, baseType: !296)
!305 = !{!290, !306}
!306 = !DITemplateValueParameter(name: "__v", type: !129, value: i8 1)
!307 = !DISubprogram(name: "_Deque_base", scope: !17, file: !16, line: 519, type: !308, isLocal: false, isDefinition: false, scopeLine: 519, flags: DIFlagPublic | DIFlagPrototyped, isOptimized: false)
!308 = !DISubroutineType(types: !309)
!309 = !{null, !262, !277}
!310 = !DISubprogram(name: "_Deque_base", scope: !17, file: !16, line: 523, type: !311, isLocal: false, isDefinition: false, scopeLine: 523, flags: DIFlagPublic | DIFlagPrototyped, isOptimized: false)
!311 = !DISubroutineType(types: !312)
!312 = !{null, !262, !277, !269, !313}
!313 = !DIDerivedType(tag: DW_TAG_typedef, name: "size_type", scope: !17, file: !16, line: 481, baseType: !314)
!314 = !DIDerivedType(tag: DW_TAG_typedef, name: "size_type", scope: !27, file: !25, line: 61, baseType: !111)
!315 = !DISubprogram(name: "~_Deque_base", scope: !17, file: !16, line: 541, type: !260, isLocal: false, isDefinition: false, scopeLine: 541, flags: DIFlagPublic | DIFlagPrototyped, isOptimized: false)
!316 = !DISubprogram(name: "_M_get_Tp_allocator", linkageName: "_ZNSt11_Deque_baseIfSaIfEE19_M_get_Tp_allocatorEv", scope: !17, file: !16, line: 587, type: !317, isLocal: false, isDefinition: false, scopeLine: 587, flags: DIFlagProtected | DIFlagPrototyped, isOptimized: false)
!317 = !DISubroutineType(types: !318)
!318 = !{!319, !262}
!319 = !DIDerivedType(tag: DW_TAG_reference_type, baseType: !23, size: 32, align: 32)
!320 = !DISubprogram(name: "_M_get_Tp_allocator", linkageName: "_ZNKSt11_Deque_baseIfSaIfEE19_M_get_Tp_allocatorEv", scope: !17, file: !16, line: 591, type: !321, isLocal: false, isDefinition: false, scopeLine: 591, flags: DIFlagProtected | DIFlagPrototyped, isOptimized: false)
!321 = !DISubroutineType(types: !322)
!322 = !{!239, !257}
!323 = !DISubprogram(name: "_M_get_map_allocator", linkageName: "_ZNKSt11_Deque_baseIfSaIfEE20_M_get_map_allocatorEv", scope: !17, file: !16, line: 595, type: !324, isLocal: false, isDefinition: false, scopeLine: 595, flags: DIFlagProtected | DIFlagPrototyped, isOptimized: false)
!324 = !DISubroutineType(types: !325)
!325 = !{!326, !257}
!326 = !DIDerivedType(tag: DW_TAG_typedef, name: "_Map_alloc_type", scope: !17, file: !16, line: 476, baseType: !327)
!327 = !DIDerivedType(tag: DW_TAG_typedef, name: "other", scope: !328, file: !25, line: 117, baseType: !331)
!328 = distinct !DICompositeType(tag: DW_TAG_structure_type, name: "rebind<float *>", scope: !27, file: !25, line: 116, size: 8, align: 8, elements: !8, templateParams: !329, identifier: "_ZTSN9__gnu_cxx14__alloc_traitsISaIfEE6rebindIPfEE")
!329 = !{!330}
!330 = !DITemplateTypeParameter(name: "_Tp", type: !11)
!331 = !DIDerivedType(tag: DW_TAG_typedef, name: "rebind_alloc<float *>", scope: !31, file: !32, line: 422, baseType: !332)
!332 = distinct !DICompositeType(tag: DW_TAG_class_type, name: "allocator<float *>", scope: !6, file: !41, line: 108, size: 8, align: 8, elements: !333, templateParams: !329, identifier: "_ZTSSaIPfE")
!333 = !{!334, !372, !376, !381}
!334 = !DIDerivedType(tag: DW_TAG_inheritance, scope: !332, baseType: !335, flags: DIFlagPublic)
!335 = !DIDerivedType(tag: DW_TAG_typedef, name: "__allocator_base<float *>", scope: !6, file: !45, line: 48, baseType: !336)
!336 = distinct !DICompositeType(tag: DW_TAG_class_type, name: "new_allocator<float *>", scope: !28, file: !47, line: 58, size: 8, align: 8, elements: !337, templateParams: !329, identifier: "_ZTSN9__gnu_cxx13new_allocatorIPfEE")
!337 = !{!338, !342, !347, !348, !355, !363, !366, !369}
!338 = !DISubprogram(name: "new_allocator", scope: !336, file: !47, line: 79, type: !339, isLocal: false, isDefinition: false, scopeLine: 79, flags: DIFlagPublic | DIFlagPrototyped, isOptimized: false)
!339 = !DISubroutineType(types: !340)
!340 = !{null, !341}
!341 = !DIDerivedType(tag: DW_TAG_pointer_type, baseType: !336, size: 32, align: 32, flags: DIFlagArtificial | DIFlagObjectPointer)
!342 = !DISubprogram(name: "new_allocator", scope: !336, file: !47, line: 81, type: !343, isLocal: false, isDefinition: false, scopeLine: 81, flags: DIFlagPublic | DIFlagPrototyped, isOptimized: false)
!343 = !DISubroutineType(types: !344)
!344 = !{null, !341, !345}
!345 = !DIDerivedType(tag: DW_TAG_reference_type, baseType: !346, size: 32, align: 32)
!346 = !DIDerivedType(tag: DW_TAG_const_type, baseType: !336)
!347 = !DISubprogram(name: "~new_allocator", scope: !336, file: !47, line: 86, type: !339, isLocal: false, isDefinition: false, scopeLine: 86, flags: DIFlagPublic | DIFlagPrototyped, isOptimized: false)
!348 = !DISubprogram(name: "address", linkageName: "_ZNK9__gnu_cxx13new_allocatorIPfE7addressERS1_", scope: !336, file: !47, line: 89, type: !349, isLocal: false, isDefinition: false, scopeLine: 89, flags: DIFlagPublic | DIFlagPrototyped, isOptimized: false)
!349 = !DISubroutineType(types: !350)
!350 = !{!351, !352, !353}
!351 = !DIDerivedType(tag: DW_TAG_typedef, name: "pointer", scope: !336, file: !47, line: 63, baseType: !227)
!352 = !DIDerivedType(tag: DW_TAG_pointer_type, baseType: !346, size: 32, align: 32, flags: DIFlagArtificial | DIFlagObjectPointer)
!353 = !DIDerivedType(tag: DW_TAG_typedef, name: "reference", scope: !336, file: !47, line: 65, baseType: !354)
!354 = !DIDerivedType(tag: DW_TAG_reference_type, baseType: !11, size: 32, align: 32)
!355 = !DISubprogram(name: "address", linkageName: "_ZNK9__gnu_cxx13new_allocatorIPfE7addressERKS1_", scope: !336, file: !47, line: 93, type: !356, isLocal: false, isDefinition: false, scopeLine: 93, flags: DIFlagPublic | DIFlagPrototyped, isOptimized: false)
!356 = !DISubroutineType(types: !357)
!357 = !{!358, !352, !361}
!358 = !DIDerivedType(tag: DW_TAG_typedef, name: "const_pointer", scope: !336, file: !47, line: 64, baseType: !359)
!359 = !DIDerivedType(tag: DW_TAG_pointer_type, baseType: !360, size: 32, align: 32)
!360 = !DIDerivedType(tag: DW_TAG_const_type, baseType: !11)
!361 = !DIDerivedType(tag: DW_TAG_typedef, name: "const_reference", scope: !336, file: !47, line: 66, baseType: !362)
!362 = !DIDerivedType(tag: DW_TAG_reference_type, baseType: !360, size: 32, align: 32)
!363 = !DISubprogram(name: "allocate", linkageName: "_ZN9__gnu_cxx13new_allocatorIPfE8allocateEjPKv", scope: !336, file: !47, line: 99, type: !364, isLocal: false, isDefinition: false, scopeLine: 99, flags: DIFlagPublic | DIFlagPrototyped, isOptimized: false)
!364 = !DISubroutineType(types: !365)
!365 = !{!351, !341, !77, !80}
!366 = !DISubprogram(name: "deallocate", linkageName: "_ZN9__gnu_cxx13new_allocatorIPfE10deallocateEPS1_j", scope: !336, file: !47, line: 116, type: !367, isLocal: false, isDefinition: false, scopeLine: 116, flags: DIFlagPublic | DIFlagPrototyped, isOptimized: false)
!367 = !DISubroutineType(types: !368)
!368 = !{null, !341, !351, !77}
!369 = !DISubprogram(name: "max_size", linkageName: "_ZNK9__gnu_cxx13new_allocatorIPfE8max_sizeEv", scope: !336, file: !47, line: 129, type: !370, isLocal: false, isDefinition: false, scopeLine: 129, flags: DIFlagPublic | DIFlagPrototyped, isOptimized: false)
!370 = !DISubroutineType(types: !371)
!371 = !{!77, !352}
!372 = !DISubprogram(name: "allocator", scope: !332, file: !41, line: 131, type: !373, isLocal: false, isDefinition: false, scopeLine: 131, flags: DIFlagPublic | DIFlagPrototyped, isOptimized: false)
!373 = !DISubroutineType(types: !374)
!374 = !{null, !375}
!375 = !DIDerivedType(tag: DW_TAG_pointer_type, baseType: !332, size: 32, align: 32, flags: DIFlagArtificial | DIFlagObjectPointer)
!376 = !DISubprogram(name: "allocator", scope: !332, file: !41, line: 133, type: !377, isLocal: false, isDefinition: false, scopeLine: 133, flags: DIFlagPublic | DIFlagPrototyped, isOptimized: false)
!377 = !DISubroutineType(types: !378)
!378 = !{null, !375, !379}
!379 = !DIDerivedType(tag: DW_TAG_reference_type, baseType: !380, size: 32, align: 32)
!380 = !DIDerivedType(tag: DW_TAG_const_type, baseType: !332)
!381 = !DISubprogram(name: "~allocator", scope: !332, file: !41, line: 139, type: !373, isLocal: false, isDefinition: false, scopeLine: 139, flags: DIFlagPublic | DIFlagPrototyped, isOptimized: false)
!382 = !DISubprogram(name: "_M_allocate_node", linkageName: "_ZNSt11_Deque_baseIfSaIfEE16_M_allocate_nodeEv", scope: !17, file: !16, line: 599, type: !383, isLocal: false, isDefinition: false, scopeLine: 599, flags: DIFlagProtected | DIFlagPrototyped, isOptimized: false)
!383 = !DISubroutineType(types: !384)
!384 = !{!385, !262}
!385 = !DIDerivedType(tag: DW_TAG_typedef, name: "_Ptr", scope: !17, file: !16, line: 471, baseType: !386)
!386 = !DIDerivedType(tag: DW_TAG_typedef, name: "pointer", scope: !27, file: !25, line: 59, baseType: !37)
!387 = !DISubprogram(name: "_M_deallocate_node", linkageName: "_ZNSt11_Deque_baseIfSaIfEE18_M_deallocate_nodeEPf", scope: !17, file: !16, line: 606, type: !388, isLocal: false, isDefinition: false, scopeLine: 606, flags: DIFlagProtected | DIFlagPrototyped, isOptimized: false)
!388 = !DISubroutineType(types: !389)
!389 = !{null, !262, !385}
!390 = !DISubprogram(name: "_M_allocate_map", linkageName: "_ZNSt11_Deque_baseIfSaIfEE15_M_allocate_mapEj", scope: !17, file: !16, line: 613, type: !391, isLocal: false, isDefinition: false, scopeLine: 613, flags: DIFlagProtected | DIFlagPrototyped, isOptimized: false)
!391 = !DISubroutineType(types: !392)
!392 = !{!136, !262, !78}
